TN:build_test_test_matrix_lib
SF:/home/egornulllet/Документы/vk/c++/matrix_calc/include/matrix_calc/vector/column.h
FN:15,_ZN3mtx6columnD0Ev
FNDA:0,_ZN3mtx6columnD0Ev
FN:15,_ZN3mtx6columnD2Ev
FNDA:0,_ZN3mtx6columnD2Ev
DA:15,0
DA:15,0
end_of_record
SF:/usr/include/c++/9/bits/move.h
FN:99,_ZSt4moveIRN3mtx3rowEEONSt16remove_referenceIT_E4typeEOS4_
FNDA:0,_ZSt4moveIRN3mtx3rowEEONSt16remove_referenceIT_E4typeEOS4_
DA:99,0
DA:100,0
end_of_record
SF:/home/egornulllet/Документы/vk/c++/matrix_calc/src/row.cpp
FN:7,_ZN3mtx3rowC2ESt16initializer_listIdE
FNDA:56,_ZN3mtx3rowC2ESt16initializer_listIdE
FN:11,_ZN3mtx3rowC2Emd
FNDA:175,_ZN3mtx3rowC2Emd
FN:17,_ZN3mtx3rowC2EOS0_
FNDA:7,_ZN3mtx3rowC2EOS0_
FN:21,_ZN3mtx3row7reverseEv
FNDA:7,_ZN3mtx3row7reverseEv
FN:29,_ZN3mtx3row7inverseEv
FNDA:7,_ZN3mtx3row7inverseEv
FN:37,_ZN3mtx3rowpLERKS0_
FNDA:14,_ZN3mtx3rowpLERKS0_
FN:47,_ZN3mtxplERKNS_3rowES2_
FNDA:0,_ZN3mtxplERKNS_3rowES2_
FN:56,_ZN3mtxmlERKNS_3rowEd
FNDA:0,_ZN3mtxmlERKNS_3rowEd
FN:62,_ZN3mtxmlEdRKNS_3rowE
FNDA:0,_ZN3mtxmlEdRKNS_3rowE
DA:7,56
DA:8,56
DA:9,56
DA:11,175
DA:12,175
DA:13,175
DA:17,7
DA:18,7
DA:19,7
DA:21,7
DA:22,7
DA:23,28
DA:24,21
DA:26,7
DA:29,7
DA:30,7
DA:31,28
DA:32,21
DA:34,7
DA:37,14
DA:38,14
DA:39,7
DA:41,28
DA:42,21
DA:44,7
DA:47,0
DA:48,0
DA:49,0
DA:51,0
DA:52,0
DA:53,0
DA:56,0
DA:57,0
DA:58,0
DA:59,0
DA:62,0
DA:63,0
DA:64,0
DA:65,0
end_of_record
SF:/home/egornulllet/Документы/vk/c++/matrix_calc/include/matrix_calc/vector/row.h
FN:10,_ZN3mtx3rowC2ERKS0_
FNDA:70,_ZN3mtx3rowC2ERKS0_
FN:16,_ZN3mtx3rowD0Ev
FNDA:0,_ZN3mtx3rowD0Ev
FN:16,_ZN3mtx3rowD2Ev
FNDA:0,_ZN3mtx3rowD2Ev
DA:10,70
DA:16,0
DA:16,0
end_of_record
TN:build_test_test_matrix_lib
SF:/usr/include/c++/9/bits/move.h
FN:99,_ZSt4moveIRN3mtx6vectorEEONSt16remove_referenceIT_E4typeEOS4_
FNDA:0,_ZSt4moveIRN3mtx6vectorEEONSt16remove_referenceIT_E4typeEOS4_
DA:99,0
DA:100,0
end_of_record
SF:/home/egornulllet/Документы/vk/c++/matrix_calc/include/matrix_calc/vector.h
FN:31,_ZN3mtx6vectorC2ERKS0_
FNDA:70,_ZN3mtx6vectorC2ERKS0_
FN:37,_ZN3mtx6vectorD0Ev
FNDA:0,_ZN3mtx6vectorD0Ev
FN:37,_ZN3mtx6vectorD2Ev
FNDA:0,_ZN3mtx6vectorD2Ev
DA:31,70
DA:37,0
DA:37,0
end_of_record
SF:/home/egornulllet/Документы/vk/c++/matrix_calc/src/vector.cpp
FN:6,_ZN3mtx6vectorC2ESt16initializer_listIdE
FNDA:35,_ZN3mtx6vectorC2ESt16initializer_listIdE
FN:10,_ZN3mtx6vectorC2Emd
FNDA:168,_ZN3mtx6vectorC2Emd
FN:16,_ZN3mtx6vectorC2EOS0_
FNDA:7,_ZN3mtx6vectorC2EOS0_
FN:20,_ZN3mtx6vector7reverseEv
FNDA:7,_ZN3mtx6vector7reverseEv
FN:28,_ZN3mtx6vectorpLERKS0_
FNDA:14,_ZN3mtx6vectorpLERKS0_
FN:39,_ZN3mtxplERKNS_6vectorES2_
FNDA:0,_ZN3mtxplERKNS_6vectorES2_
FN:48,_ZN3mtxmlERKNS_6vectorEd
FNDA:0,_ZN3mtxmlERKNS_6vectorEd
FN:54,_ZN3mtxmlEdRKNS_6vectorE
FNDA:0,_ZN3mtxmlEdRKNS_6vectorE
FN:64,_ZN3mtx7IVectorC2ESt16initializer_listIdE
FNDA:147,_ZN3mtx7IVectorC2ESt16initializer_listIdE
FN:75,_ZN3mtx7IVectorC2Emd
FNDA:518,_ZN3mtx7IVectorC2Emd
FN:84,_ZN3mtx7IVectorC2ERKS0_
FNDA:210,_ZN3mtx7IVectorC2ERKS0_
FN:93,_ZN3mtx7IVectorC2EOS0_
FNDA:21,_ZN3mtx7IVectorC2EOS0_
FN:101,_ZN3mtx7IVectorD2Ev
FNDA:896,_ZN3mtx7IVectorD2Ev
FN:101,_ZN3mtx7IVectorD0Ev
FNDA:0,_ZN3mtx7IVectorD0Ev
FN:105,_ZN3mtx7IVector6appendEd
FNDA:21,_ZN3mtx7IVector6appendEd
FN:112,_ZN3mtx7IVector2atEm
FNDA:21,_ZN3mtx7IVector2atEm
FN:119,_ZNK3mtx7IVectorixEm
FNDA:2499,_ZNK3mtx7IVectorixEm
FN:123,_ZNK3mtx7IVector4sizeEv
FNDA:1029,_ZNK3mtx7IVector4sizeEv
FN:128,_ZN3mtx7IVectormLEd
FNDA:21,_ZN3mtx7IVectormLEd
FN:135,_ZN3mtx7IVector7reallocEv
FNDA:21,_ZN3mtx7IVector7reallocEv
DA:6,35
DA:7,35
DA:8,35
DA:10,168
DA:11,168
DA:12,168
DA:16,7
DA:17,7
DA:18,7
DA:20,7
DA:21,7
DA:22,28
DA:23,21
DA:25,7
DA:28,14
DA:29,14
DA:30,7
DA:32,28
DA:33,21
DA:35,7
DA:39,0
DA:40,0
DA:41,0
DA:43,0
DA:44,0
DA:45,0
DA:48,0
DA:49,0
DA:50,0
DA:51,0
DA:54,0
DA:55,0
DA:56,0
DA:57,0
DA:64,147
DA:65,147
DA:67,147
DA:68,147
DA:69,532
DA:70,385
DA:71,385
DA:73,147
DA:75,518
DA:76,518
DA:78,518
DA:79,1869
DA:80,1351
DA:82,518
DA:84,210
DA:85,210
DA:87,210
DA:88,819
DA:89,609
DA:91,210
DA:93,21
DA:94,21
DA:96,21
DA:97,21
DA:98,21
DA:99,21
DA:101,0
DA:103,0
DA:101,1792
DA:102,896
DA:103,896
DA:105,21
DA:106,21
DA:107,21
DA:109,21
DA:110,21
DA:112,21
DA:113,21
DA:114,21
DA:116,0
DA:119,2499
DA:120,2499
DA:123,1029
DA:124,1029
DA:128,21
DA:129,84
DA:130,63
DA:132,21
DA:135,21
DA:136,21
DA:137,21
DA:138,21
DA:139,84
DA:140,63
DA:142,21
DA:143,21
end_of_record
SF:/usr/include/c++/9/initializer_list
FN:71,_ZNKSt16initializer_listIdE4sizeEv
FNDA:294,_ZNKSt16initializer_listIdE4sizeEv
FN:75,_ZNKSt16initializer_listIdE5beginEv
FNDA:294,_ZNKSt16initializer_listIdE5beginEv
FN:79,_ZNKSt16initializer_listIdE3endEv
FNDA:147,_ZNKSt16initializer_listIdE3endEv
DA:71,294
DA:75,294
DA:79,147
end_of_record
TN:build_test_test_matrix_lib
SF:/usr/include/c++/9/bits/move.h
FN:99,_ZSt4moveIRPdEONSt16remove_referenceIT_E4typeEOS3_
FNDA:300,_ZSt4moveIRPdEONSt16remove_referenceIT_E4typeEOS3_
FN:182,_ZSt4swapIPdENSt9enable_ifIXsrSt6__and_IJSt6__not_ISt15__is_tuple_likeIT_EESt21is_move_constructibleIS5_ESt18is_move_assignableIS5_EEE5valueEvE4typeERS5_SF_
FNDA:100,_ZSt4swapIPdENSt9enable_ifIXsrSt6__and_IJSt6__not_ISt15__is_tuple_likeIT_EESt21is_move_constructibleIS5_ESt18is_move_assignableIS5_EEE5valueEvE4typeERS5_SF_
DA:99,300
DA:100,300
DA:182,100
DA:193,100
DA:194,100
DA:195,100
DA:196,100
end_of_record
SF:/home/egornulllet/Документы/vk/c++/matrix_calc/include/matrix_calc/vector/column.h
FN:15,_ZN3mtx6columnD0Ev
FNDA:0,_ZN3mtx6columnD0Ev
FN:15,_ZN3mtx6columnD2Ev
FNDA:0,_ZN3mtx6columnD2Ev
DA:15,0
DA:15,0
end_of_record
SF:/usr/include/c++/9/bits/stl_algobase.h
FN:222,_ZSt3maxIdERKT_S2_S2_
FNDA:60,_ZSt3maxIdERKT_S2_S2_
DA:222,60
DA:227,60
DA:228,0
DA:229,60
end_of_record
SF:/home/egornulllet/Документы/vk/c++/matrix_calc/include/matrix_calc/vector.h
FN:37,_ZN3mtx6vectorD0Ev
FNDA:0,_ZN3mtx6vectorD0Ev
FN:37,_ZN3mtx6vectorD2Ev
FNDA:0,_ZN3mtx6vectorD2Ev
DA:37,0
DA:37,0
end_of_record
SF:/home/egornulllet/Документы/vk/c++/matrix_calc/src/matrix.cpp
FN:11,_ZN3mtx6matrixC2ESt16initializer_listINS_6vectorEE
FNDA:10,_ZN3mtx6matrixC2ESt16initializer_listINS_6vectorEE
FN:33,_ZN3mtx6matrixC2ESt16initializer_listINS_6columnEE
FNDA:10,_ZN3mtx6matrixC2ESt16initializer_listINS_6columnEE
FN:53,_ZN3mtx6matrixC2ESt16initializer_listINS_3rowEE
FNDA:10,_ZN3mtx6matrixC2ESt16initializer_listINS_3rowEE
FN:74,_ZN3mtx6matrixC2Emmd
FNDA:455,_ZN3mtx6matrixC2Emmd
FN:87,_ZN3mtx6matrixC2ERKS0_
FNDA:1505,_ZN3mtx6matrixC2ERKS0_
FN:100,_ZN3mtx6matrixC2EOS0_
FNDA:5,_ZN3mtx6matrixC2EOS0_
FN:111,_ZN3mtx6matrixD2Ev
FNDA:1980,_ZN3mtx6matrixD2Ev
FN:118,_ZN3mtx6matrix7get_rowEm
FNDA:10,_ZN3mtx6matrix7get_rowEm
FN:129,_ZN3mtx6matrix7get_colEm
FNDA:10,_ZN3mtx6matrix7get_colEm
FN:140,_ZN3mtx6matrix13main_diagonalEv
FNDA:10,_ZN3mtx6matrix13main_diagonalEv
FN:151,_ZN3mtx6matrix18secondary_diagonalEv
FNDA:10,_ZN3mtx6matrix18secondary_diagonalEv
FN:162,_ZN3mtx6matrix7inverseEd
FNDA:15,_ZN3mtx6matrix7inverseEd
FN:203,_ZN3mtx6matrix10transposedEv
FNDA:30,_ZN3mtx6matrix10transposedEv
FN:213,_ZN3mtx6matrix11determinantEv
FNDA:185,_ZN3mtx6matrix11determinantEv
FN:251,_ZN3mtx6matrix6appendERKNS_3rowE
FNDA:15,_ZN3mtx6matrix6appendERKNS_3rowE
FN:264,_ZN3mtx6matrix6appendERKNS_6columnE
FNDA:15,_ZN3mtx6matrix6appendERKNS_6columnE
FN:277,_ZNK3mtx6matrixixEm
FNDA:32845,_ZNK3mtx6matrixixEm
FN:284,_ZN3mtx6matrixaSERKS0_
FNDA:0,_ZN3mtx6matrixaSERKS0_
FN:296,_ZN3mtx6matrixaSEOS0_
FNDA:290,_ZN3mtx6matrixaSEOS0_
FN:318,_ZN3mtx6matrixpLERKS0_
FNDA:150,_ZN3mtx6matrixpLERKS0_
FN:330,_ZN3mtx6matrixmLERKS0_
FNDA:440,_ZN3mtx6matrixmLERKS0_
FN:349,_ZN3mtx6matrixmLEd
FNDA:155,_ZN3mtx6matrixmLEd
FN:358,_ZNK3mtx6matrix4colsEv
FNDA:4435,_ZNK3mtx6matrix4colsEv
FN:362,_ZNK3mtx6matrix4rowsEv
FNDA:2285,_ZNK3mtx6matrix4rowsEv
FN:366,_ZN3mtx6matrix7reallocEmm
FNDA:445,_ZN3mtx6matrix7reallocEmm
FN:391,_ZN3mtxplERKNS_6matrixES2_
FNDA:140,_ZN3mtxplERKNS_6matrixES2_
FN:399,_ZN3mtxmlERKNS_6matrixES2_
FNDA:430,_ZN3mtxmlERKNS_6matrixES2_
FN:407,_ZN3mtxmlERKNS_6matrixEd
FNDA:140,_ZN3mtxmlERKNS_6matrixEd
FN:412,_ZN3mtxmlEdRKNS_6matrixE
FNDA:0,_ZN3mtxmlEdRKNS_6matrixE
FN:418,_ZN3mtxmlERKNS_6matrixERKNS_6columnE
FNDA:0,_ZN3mtxmlERKNS_6matrixERKNS_6columnE
FN:433,_ZN3mtxmlERKNS_3rowERKNS_6matrixE
FNDA:0,_ZN3mtxmlERKNS_3rowERKNS_6matrixE
FN:448,_ZN3mtxmlERKNS_6columnERKNS_3rowE
FNDA:5,_ZN3mtxmlERKNS_6columnERKNS_3rowE
FN:461,_ZN3mtxmlERKNS_3rowERKNS_6columnE
FNDA:15,_ZN3mtxmlERKNS_3rowERKNS_6columnE
DA:11,10
DA:12,10
DA:13,10
DA:16,10
DA:17,35
DA:18,25
DA:21,10
DA:22,30
DA:23,25
DA:24,5
DA:26,80
DA:27,60
DA:29,20
DA:31,5
DA:33,10
DA:34,20
DA:35,10
DA:37,10
DA:38,40
DA:39,30
DA:41,10
DA:42,30
DA:43,25
DA:44,5
DA:46,80
DA:47,60
DA:49,20
DA:51,5
DA:53,10
DA:54,10
DA:55,10
DA:57,10
DA:58,35
DA:59,25
DA:62,10
DA:63,30
DA:64,25
DA:65,5
DA:67,80
DA:68,60
DA:70,20
DA:72,5
DA:74,455
DA:76,455
DA:78,455
DA:79,1565
DA:80,1110
DA:81,3955
DA:82,2845
DA:85,455
DA:87,1505
DA:88,1505
DA:89,1505
DA:91,1505
DA:92,6005
DA:93,4500
DA:94,18000
DA:95,13500
DA:98,1505
DA:100,5
DA:101,5
DA:102,5
DA:104,5
DA:105,5
DA:106,5
DA:107,5
DA:108,5
DA:109,5
DA:111,3960
DA:112,6780
DA:113,4800
DA:115,1980
DA:116,1980
DA:118,10
DA:119,10
DA:120,5
DA:122,5
DA:123,20
DA:124,15
DA:126,5
DA:129,10
DA:130,10
DA:131,5
DA:133,5
DA:134,15
DA:135,10
DA:137,5
DA:140,10
DA:141,10
DA:142,5
DA:144,5
DA:145,20
DA:146,15
DA:148,5
DA:151,10
DA:152,10
DA:153,5
DA:155,5
DA:156,20
DA:157,15
DA:159,5
DA:162,15
DA:163,15
DA:164,5
DA:166,10
DA:167,0
DA:173,10
DA:174,10
DA:175,10
DA:176,40
DA:177,30
DA:178,30
DA:179,120
DA:180,90
DA:181,90
DA:183,30
DA:184,30
DA:186,10
DA:187,10
DA:189,20
DA:190,40
DA:191,30
DA:195,150
DA:196,140
DA:197,140
DA:198,140
DA:200,20
DA:203,30
DA:204,30
DA:205,115
DA:206,325
DA:207,240
DA:210,30
DA:213,185
DA:214,185
DA:215,5
DA:217,360
DA:219,180
DA:220,720
DA:221,540
DA:222,540
DA:223,1080
DA:224,540
DA:225,170
DA:226,170
DA:229,540
DA:230,0
DA:232,540
DA:233,100
DA:234,100
DA:236,1080
DA:237,540
DA:238,505
DA:239,1845
DA:240,1340
DA:245,720
DA:246,540
DA:248,180
DA:251,15
DA:252,15
DA:253,10
DA:255,5
DA:256,5
DA:258,20
DA:259,15
DA:261,5
DA:262,5
DA:264,15
DA:265,15
DA:266,10
DA:268,5
DA:269,5
DA:271,20
DA:272,15
DA:274,5
DA:275,5
DA:277,32845
DA:278,32845
DA:279,5
DA:281,32840
DA:284,0
DA:285,0
DA:286,0
DA:288,0
DA:289,0
DA:290,0
DA:291,0
DA:294,0
DA:296,290
DA:297,290
DA:298,0
DA:300,1160
DA:301,870
DA:303,290
DA:305,290
DA:306,290
DA:307,290
DA:309,290
DA:310,290
DA:311,290
DA:312,290
DA:313,290
DA:315,290
DA:318,150
DA:319,150
DA:320,5
DA:322,580
DA:323,1740
DA:324,1305
DA:327,145
DA:330,440
DA:331,440
DA:332,5
DA:334,435
DA:335,435
DA:336,435
DA:337,1735
DA:338,5190
DA:339,3890
DA:340,15560
DA:341,11670
DA:343,3890
DA:346,870
DA:349,155
DA:350,615
DA:351,1840
DA:352,1380
DA:355,155
DA:358,4435
DA:359,4435
DA:362,2285
DA:363,2285
DA:366,445
DA:367,445
DA:368,430
DA:370,15
DA:371,70
DA:372,55
DA:374,55
DA:375,160
DA:376,120
DA:380,55
DA:381,40
DA:383,15
DA:385,15
DA:387,15
DA:388,15
DA:391,140
DA:392,140
DA:393,0
DA:395,140
DA:396,140
DA:397,140
DA:399,430
DA:400,430
DA:401,0
DA:403,430
DA:404,430
DA:405,430
DA:407,140
DA:408,140
DA:409,140
DA:410,140
DA:412,0
DA:413,0
DA:414,0
DA:415,0
DA:418,0
DA:419,0
DA:420,0
DA:422,0
DA:423,0
DA:424,0
DA:425,0
DA:426,0
DA:428,0
DA:430,0
DA:433,0
DA:434,0
DA:435,0
DA:437,0
DA:438,0
DA:439,0
DA:440,0
DA:441,0
DA:443,0
DA:445,0
DA:448,5
DA:449,5
DA:450,0
DA:452,5
DA:453,20
DA:454,60
DA:455,45
DA:458,5
DA:461,15
DA:462,15
DA:463,10
DA:465,5
DA:466,20
DA:467,15
DA:469,5
end_of_record
SF:/usr/include/c++/9/initializer_list
FN:71,_ZNKSt16initializer_listIN3mtx3rowEE4sizeEv
FNDA:20,_ZNKSt16initializer_listIN3mtx3rowEE4sizeEv
FN:71,_ZNKSt16initializer_listIN3mtx6columnEE4sizeEv
FNDA:20,_ZNKSt16initializer_listIN3mtx6columnEE4sizeEv
FN:71,_ZNKSt16initializer_listIN3mtx6vectorEE4sizeEv
FNDA:20,_ZNKSt16initializer_listIN3mtx6vectorEE4sizeEv
FN:75,_ZNKSt16initializer_listIN3mtx3rowEE5beginEv
FNDA:55,_ZNKSt16initializer_listIN3mtx3rowEE5beginEv
FN:75,_ZNKSt16initializer_listIN3mtx6columnEE5beginEv
FNDA:55,_ZNKSt16initializer_listIN3mtx6columnEE5beginEv
FN:75,_ZNKSt16initializer_listIN3mtx6vectorEE5beginEv
FNDA:55,_ZNKSt16initializer_listIN3mtx6vectorEE5beginEv
FN:79,_ZNKSt16initializer_listIN3mtx3rowEE3endEv
FNDA:10,_ZNKSt16initializer_listIN3mtx3rowEE3endEv
FN:79,_ZNKSt16initializer_listIN3mtx6columnEE3endEv
FNDA:10,_ZNKSt16initializer_listIN3mtx6columnEE3endEv
FN:79,_ZNKSt16initializer_listIN3mtx6vectorEE3endEv
FNDA:10,_ZNKSt16initializer_listIN3mtx6vectorEE3endEv
DA:71,20
DA:71,20
DA:71,20
DA:75,55
DA:75,55
DA:75,55
DA:79,10
DA:79,10
DA:79,10
end_of_record
SF:/home/egornulllet/Документы/vk/c++/matrix_calc/include/matrix_calc/vector/row.h
FN:16,_ZN3mtx3rowD0Ev
FNDA:0,_ZN3mtx3rowD0Ev
FN:16,_ZN3mtx3rowD2Ev
FNDA:0,_ZN3mtx3rowD2Ev
DA:16,0
DA:16,0
end_of_record
SF:/usr/include/c++/9/bits/std_abs.h
FN:71,_ZSt3absd
FNDA:1040,_ZSt3absd
DA:71,1040
DA:72,1040
end_of_record
TN:build_test_test_matrix_lib
SF:/usr/include/c++/9/bits/move.h
FN:99,_ZSt4moveIRN3mtx6columnEEONSt16remove_referenceIT_E4typeEOS4_
FNDA:0,_ZSt4moveIRN3mtx6columnEEONSt16remove_referenceIT_E4typeEOS4_
DA:99,0
DA:100,0
end_of_record
SF:/home/egornulllet/Документы/vk/c++/matrix_calc/include/matrix_calc/vector/column.h
FN:9,_ZN3mtx6columnC2ERKS0_
FNDA:70,_ZN3mtx6columnC2ERKS0_
FN:15,_ZN3mtx6columnD0Ev
FNDA:0,_ZN3mtx6columnD0Ev
FN:15,_ZN3mtx6columnD2Ev
FNDA:0,_ZN3mtx6columnD2Ev
DA:9,70
DA:15,0
DA:15,0
end_of_record
SF:/home/egornulllet/Документы/vk/c++/matrix_calc/include/matrix_calc/vector/row.h
FN:16,_ZN3mtx3rowD0Ev
FNDA:0,_ZN3mtx3rowD0Ev
FN:16,_ZN3mtx3rowD2Ev
FNDA:0,_ZN3mtx3rowD2Ev
DA:16,0
DA:16,0
end_of_record
SF:/home/egornulllet/Документы/vk/c++/matrix_calc/src/column.cpp
FN:8,_ZN3mtx6columnC2ESt16initializer_listIdE
FNDA:56,_ZN3mtx6columnC2ESt16initializer_listIdE
FN:12,_ZN3mtx6columnC2Emd
FNDA:175,_ZN3mtx6columnC2Emd
FN:18,_ZN3mtx6columnC2EOS0_
FNDA:7,_ZN3mtx6columnC2EOS0_
FN:22,_ZN3mtx6column7reverseEv
FNDA:7,_ZN3mtx6column7reverseEv
FN:30,_ZN3mtx6column7inverseEv
FNDA:7,_ZN3mtx6column7inverseEv
FN:38,_ZN3mtx6columnpLERKS0_
FNDA:14,_ZN3mtx6columnpLERKS0_
FN:48,_ZN3mtxplERKNS_6columnES2_
FNDA:0,_ZN3mtxplERKNS_6columnES2_
FN:56,_ZN3mtxmlERKNS_6columnEd
FNDA:0,_ZN3mtxmlERKNS_6columnEd
FN:61,_ZN3mtxmlEdRKNS_6columnE
FNDA:0,_ZN3mtxmlEdRKNS_6columnE
DA:8,56
DA:9,56
DA:10,56
DA:12,175
DA:13,175
DA:14,175
DA:18,7
DA:19,7
DA:20,7
DA:22,7
DA:23,7
DA:24,28
DA:25,21
DA:27,7
DA:30,7
DA:31,7
DA:32,28
DA:33,21
DA:35,7
DA:38,14
DA:39,14
DA:40,7
DA:42,28
DA:43,21
DA:45,7
DA:48,0
DA:49,0
DA:50,0
DA:52,0
DA:53,0
DA:54,0
DA:56,0
DA:57,0
DA:58,0
DA:59,0
DA:61,0
DA:62,0
DA:63,0
DA:64,0
end_of_record
TN:build_test_test_matrix_lib
SF:/usr/include/gtest/internal/gtest-internal.h
FN:286,_ZN7testing8internal13FloatingPointIdEC2ERKd
FNDA:0,_ZN7testing8internal13FloatingPointIdEC2ERKd
FN:313,_ZNK7testing8internal13FloatingPointIdE13exponent_bitsEv
FNDA:0,_ZNK7testing8internal13FloatingPointIdE13exponent_bitsEv
FN:316,_ZNK7testing8internal13FloatingPointIdE13fraction_bitsEv
FNDA:0,_ZNK7testing8internal13FloatingPointIdE13fraction_bitsEv
FN:322,_ZNK7testing8internal13FloatingPointIdE6is_nanEv
FNDA:0,_ZNK7testing8internal13FloatingPointIdE6is_nanEv
FN:334,_ZNK7testing8internal13FloatingPointIdE12AlmostEqualsERKS2_
FNDA:0,_ZNK7testing8internal13FloatingPointIdE12AlmostEqualsERKS2_
FN:365,_ZN7testing8internal13FloatingPointIdE24SignAndMagnitudeToBiasedERKy
FNDA:0,_ZN7testing8internal13FloatingPointIdE24SignAndMagnitudeToBiasedERKy
FN:377,_ZN7testing8internal13FloatingPointIdE38DistanceBetweenSignAndMagnitudeNumbersERKyS4_
FNDA:0,_ZN7testing8internal13FloatingPointIdE38DistanceBetweenSignAndMagnitudeNumbersERKyS4_
FN:423,_ZN7testing8internal9GetTypeIdI11TestVectorsEEPKvv
FNDA:80,_ZN7testing8internal9GetTypeIdI11TestVectorsEEPKvv
FN:442,_ZN7testing8internal15TestFactoryBaseD2Ev
FNDA:0,_ZN7testing8internal15TestFactoryBaseD2Ev
FN:442,_ZN7testing8internal15TestFactoryBaseD0Ev
FNDA:0,_ZN7testing8internal15TestFactoryBaseD0Ev
FN:449,_ZN7testing8internal15TestFactoryBaseC2Ev
FNDA:0,_ZN7testing8internal15TestFactoryBaseC2Ev
FN:460,_ZN7testing8internal15TestFactoryImplI32TestVectors_multiply_double_TestE10CreateTestEv
FNDA:5,_ZN7testing8internal15TestFactoryImplI32TestVectors_multiply_double_TestE10CreateTestEv
FN:460,_ZN7testing8internal15TestFactoryImplI32TestVectors_size_val_constr_TestE10CreateTestEv
FNDA:5,_ZN7testing8internal15TestFactoryImplI32TestVectors_size_val_constr_TestE10CreateTestEv
FN:460,_ZN7testing8internal15TestFactoryImplI28TestVectors_copy_constr_TestE10CreateTestEv
FNDA:5,_ZN7testing8internal15TestFactoryImplI28TestVectors_copy_constr_TestE10CreateTestEv
FN:460,_ZN7testing8internal15TestFactoryImplI28TestVectors_list_constr_TestE10CreateTestEv
FNDA:5,_ZN7testing8internal15TestFactoryImplI28TestVectors_list_constr_TestE10CreateTestEv
FN:460,_ZN7testing8internal15TestFactoryImplI28TestVectors_move_constr_TestE10CreateTestEv
FNDA:5,_ZN7testing8internal15TestFactoryImplI28TestVectors_move_constr_TestE10CreateTestEv
FN:460,_ZN7testing8internal15TestFactoryImplI23TestVectors_append_TestE10CreateTestEv
FNDA:5,_ZN7testing8internal15TestFactoryImplI23TestVectors_append_TestE10CreateTestEv
FN:460,_ZN7testing8internal15TestFactoryImplI24TestVectors_reverse_TestE10CreateTestEv
FNDA:5,_ZN7testing8internal15TestFactoryImplI24TestVectors_reverse_TestE10CreateTestEv
FN:460,_ZN7testing8internal15TestFactoryImplI24TestVectors_inverse_TestE10CreateTestEv
FNDA:5,_ZN7testing8internal15TestFactoryImplI24TestVectors_inverse_TestE10CreateTestEv
FN:460,_ZN7testing8internal15TestFactoryImplI21TestVectors_plus_TestE10CreateTestEv
FNDA:5,_ZN7testing8internal15TestFactoryImplI21TestVectors_plus_TestE10CreateTestEv
FN:460,_ZN7testing8internal15TestFactoryImplI30TestVectors_muliply_other_TestE10CreateTestEv
FNDA:5,_ZN7testing8internal15TestFactoryImplI30TestVectors_muliply_other_TestE10CreateTestEv
FN:481,_ZN7testing8internal12CodeLocationC2ERKNSt7__cxx1112basic_stringIcSt11char_traitsIcESaIcEEEi
FNDA:0,_ZN7testing8internal12CodeLocationC2ERKNSt7__cxx1112basic_stringIcSt11char_traitsIcESaIcEEEi
FN:494,_ZN7testing8internal19GetNotDefaultOrNullEPFvvES2_
FNDA:0,_ZN7testing8internal19GetNotDefaultOrNullEPFvvES2_
FN:509,_ZN7testing8internal16SuiteApiResolverI11TestVectorsE19GetSetUpCaseOrSuiteEPKci
FNDA:80,_ZN7testing8internal16SuiteApiResolverI11TestVectorsE19GetSetUpCaseOrSuiteEPKci
FN:524,_ZN7testing8internal16SuiteApiResolverI11TestVectorsE22GetTearDownCaseOrSuiteEPKci
FNDA:80,_ZN7testing8internal16SuiteApiResolverI11TestVectorsE22GetTearDownCaseOrSuiteEPKci
FN:823,_ZN7testing8internal12ConstCharPtrC2EPKc
FNDA:0,_ZN7testing8internal12ConstCharPtrC2EPKc
FN:824,_ZNK7testing8internal12ConstCharPtrcvbEv
FNDA:0,_ZNK7testing8internal12ConstCharPtrcvbEv
DA:286,0
DA:313,0
DA:316,0
DA:322,0
DA:325,0
DA:334,0
DA:337,0
DA:339,0
DA:340,0
DA:365,0
DA:366,0
DA:368,0
DA:371,0
DA:377,0
DA:379,0
DA:380,0
DA:381,0
DA:423,80
DA:428,80
DA:442,0
DA:442,0
DA:449,0
DA:460,5
DA:460,5
DA:460,5
DA:460,5
DA:460,5
DA:460,5
DA:460,5
DA:460,5
DA:460,5
DA:460,5
DA:481,0
DA:482,0
DA:494,0
DA:496,0
DA:509,80
DA:512,80
DA:514,80
DA:516,80
DA:519,0
DA:521,80
DA:524,80
DA:527,80
DA:529,80
DA:531,80
DA:534,0
DA:536,80
DA:823,0
DA:824,0
end_of_record
SF:/usr/include/c++/9/bits/stl_iterator_base_funcs.h
FN:98,_ZSt10__distanceIPcENSt15iterator_traitsIT_E15difference_typeES2_S2_St26random_access_iterator_tag
FNDA:0,_ZSt10__distanceIPcENSt15iterator_traitsIT_E15difference_typeES2_S2_St26random_access_iterator_tag
FN:98,_ZSt10__distanceIPKcENSt15iterator_traitsIT_E15difference_typeES3_S3_St26random_access_iterator_tag
FNDA:0,_ZSt10__distanceIPKcENSt15iterator_traitsIT_E15difference_typeES3_S3_St26random_access_iterator_tag
FN:138,_ZSt8distanceIPcENSt15iterator_traitsIT_E15difference_typeES2_S2_
FNDA:0,_ZSt8distanceIPcENSt15iterator_traitsIT_E15difference_typeES2_S2_
FN:138,_ZSt8distanceIPKcENSt15iterator_traitsIT_E15difference_typeES3_S3_
FNDA:0,_ZSt8distanceIPKcENSt15iterator_traitsIT_E15difference_typeES3_S3_
DA:98,0
DA:104,0
DA:98,0
DA:104,0
DA:138,0
DA:141,0
DA:142,0
DA:138,0
DA:141,0
DA:142,0
end_of_record
SF:/home/egornulllet/Документы/vk/c++/matrix_calc/include/matrix_calc/vector/column.h
FN:15,_ZN3mtx6columnD0Ev
FNDA:0,_ZN3mtx6columnD0Ev
FN:15,_ZN3mtx6columnD2Ev
FNDA:0,_ZN3mtx6columnD2Ev
DA:15,0
DA:15,0
end_of_record
SF:/usr/include/gtest/gtest-message.h
end_of_record
SF:/home/egornulllet/Документы/vk/c++/matrix_calc/test/vectors_test.cpp
FN:17,_ZN11TestVectors5SetUpEv
FNDA:50,_ZN11TestVectors5SetUpEv
FN:24,_ZN11TestVectorsC2Ev
FNDA:50,_ZN11TestVectorsC2Ev
FN:28,_ZN11TestVectors8TearDownEv
FNDA:50,_ZN11TestVectors8TearDownEv
FN:32,_ZN32TestVectors_size_val_constr_TestC2Ev
FNDA:5,_ZN32TestVectors_size_val_constr_TestC2Ev
FN:32,_ZN32TestVectors_size_val_constr_Test8TestBodyEv
FNDA:5,_ZN32TestVectors_size_val_constr_Test8TestBodyEv
FN:46,_ZN28TestVectors_copy_constr_TestC2Ev
FNDA:5,_ZN28TestVectors_copy_constr_TestC2Ev
FN:46,_ZN28TestVectors_copy_constr_Test8TestBodyEv
FNDA:5,_ZN28TestVectors_copy_constr_Test8TestBodyEv
FN:57,_ZN28TestVectors_list_constr_TestC2Ev
FNDA:5,_ZN28TestVectors_list_constr_TestC2Ev
FN:57,_ZN28TestVectors_list_constr_Test8TestBodyEv
FNDA:5,_ZN28TestVectors_list_constr_Test8TestBodyEv
FN:68,_ZN28TestVectors_move_constr_TestC2Ev
FNDA:5,_ZN28TestVectors_move_constr_TestC2Ev
FN:68,_ZN28TestVectors_move_constr_Test8TestBodyEv
FNDA:5,_ZN28TestVectors_move_constr_Test8TestBodyEv
FN:88,_ZN23TestVectors_append_TestC2Ev
FNDA:5,_ZN23TestVectors_append_TestC2Ev
FN:88,_ZN23TestVectors_append_Test8TestBodyEv
FNDA:5,_ZN23TestVectors_append_Test8TestBodyEv
FN:104,_ZN24TestVectors_reverse_TestC2Ev
FNDA:5,_ZN24TestVectors_reverse_TestC2Ev
FN:104,_ZN24TestVectors_reverse_Test8TestBodyEv
FNDA:5,_ZN24TestVectors_reverse_Test8TestBodyEv
FN:116,_ZN24TestVectors_inverse_TestC2Ev
FNDA:5,_ZN24TestVectors_inverse_TestC2Ev
FN:116,_ZN24TestVectors_inverse_Test8TestBodyEv
FNDA:5,_ZN24TestVectors_inverse_Test8TestBodyEv
FN:129,_ZN21TestVectors_plus_TestC2Ev
FNDA:5,_ZN21TestVectors_plus_TestC2Ev
FN:129,_ZN21TestVectors_plus_Test8TestBodyEv
FNDA:5,_ZN21TestVectors_plus_Test8TestBodyEv
FN:148,_ZN32TestVectors_multiply_double_TestC2Ev
FNDA:5,_ZN32TestVectors_multiply_double_TestC2Ev
FN:148,_ZN32TestVectors_multiply_double_Test8TestBodyEv
FNDA:5,_ZN32TestVectors_multiply_double_Test8TestBodyEv
FN:163,_ZN30TestVectors_muliply_other_Test8TestBodyEv
FNDA:5,_ZN30TestVectors_muliply_other_Test8TestBodyEv
FN:163,_ZN30TestVectors_muliply_other_TestC2Ev
FNDA:5,_ZN30TestVectors_muliply_other_TestC2Ev
DA:17,50
DA:18,200
DA:19,150
DA:20,150
DA:21,150
DA:23,50
DA:24,50
DA:26,50
DA:27,50
DA:28,50
DA:32,5
DA:33,10
DA:34,5
DA:35,5
DA:37,10
DA:38,5
DA:39,5
DA:41,10
DA:42,5
DA:43,5
DA:44,5
DA:32,5
DA:46,5
DA:47,10
DA:48,10
DA:49,10
DA:50,20
DA:51,15
DA:52,15
DA:53,15
DA:55,5
DA:46,5
DA:57,5
DA:58,10
DA:59,10
DA:60,10
DA:61,20
DA:62,15
DA:63,15
DA:64,15
DA:66,5
DA:57,5
DA:68,5
DA:69,10
DA:70,10
DA:71,10
DA:73,10
DA:74,10
DA:75,10
DA:77,20
DA:78,15
DA:79,15
DA:80,15
DA:83,10
DA:84,10
DA:85,10
DA:86,5
DA:68,5
DA:88,5
DA:89,10
DA:90,10
DA:91,10
DA:93,5
DA:94,5
DA:95,5
DA:97,5
DA:98,5
DA:99,5
DA:100,5
DA:101,5
DA:102,5
DA:103,5
DA:88,5
DA:104,5
DA:105,10
DA:106,10
DA:107,10
DA:109,20
DA:110,15
DA:111,15
DA:112,15
DA:114,5
DA:104,5
DA:116,5
DA:117,10
DA:118,10
DA:120,5
DA:121,5
DA:123,20
DA:124,15
DA:125,15
DA:128,5
DA:116,5
DA:129,5
DA:130,10
DA:131,10
DA:132,10
DA:134,5
DA:135,5
DA:136,5
DA:138,20
DA:139,15
DA:140,15
DA:141,15
DA:144,10
DA:145,10
DA:146,10
DA:147,5
DA:129,5
DA:148,5
DA:149,10
DA:150,10
DA:151,10
DA:153,5
DA:154,5
DA:155,5
DA:157,20
DA:158,15
DA:159,15
DA:160,15
DA:162,5
DA:148,5
DA:163,5
DA:164,5
DA:165,5
DA:167,10
DA:169,10
DA:170,5
DA:171,5
DA:173,20
DA:174,60
DA:175,45
DA:179,10
DA:180,5
DA:163,5
end_of_record
SF:/usr/include/c++/9/bits/unique_ptr.h
FN:75,_ZNKSt14default_deleteINSt7__cxx1112basic_stringIcSt11char_traitsIcESaIcEEEEclEPS5_
FNDA:0,_ZNKSt14default_deleteINSt7__cxx1112basic_stringIcSt11char_traitsIcESaIcEEEEclEPS5_
FN:75,_ZNKSt14default_deleteINSt7__cxx1118basic_stringstreamIcSt11char_traitsIcESaIcEEEEclEPS5_
FNDA:0,_ZNKSt14default_deleteINSt7__cxx1118basic_stringstreamIcSt11char_traitsIcESaIcEEEEclEPS5_
FN:153,_ZNSt15__uniq_ptr_implINSt7__cxx1112basic_stringIcSt11char_traitsIcESaIcEEESt14default_deleteIS5_EE6_M_ptrEv
FNDA:0,_ZNSt15__uniq_ptr_implINSt7__cxx1112basic_stringIcSt11char_traitsIcESaIcEEESt14default_deleteIS5_EE6_M_ptrEv
FN:153,_ZNSt15__uniq_ptr_implINSt7__cxx1118basic_stringstreamIcSt11char_traitsIcESaIcEEESt14default_deleteIS5_EE6_M_ptrEv
FNDA:0,_ZNSt15__uniq_ptr_implINSt7__cxx1118basic_stringstreamIcSt11char_traitsIcESaIcEEESt14default_deleteIS5_EE6_M_ptrEv
FN:154,_ZNKSt15__uniq_ptr_implINSt7__cxx1112basic_stringIcSt11char_traitsIcESaIcEEESt14default_deleteIS5_EE6_M_ptrEv
FNDA:0,_ZNKSt15__uniq_ptr_implINSt7__cxx1112basic_stringIcSt11char_traitsIcESaIcEEESt14default_deleteIS5_EE6_M_ptrEv
FN:155,_ZNSt15__uniq_ptr_implINSt7__cxx1112basic_stringIcSt11char_traitsIcESaIcEEESt14default_deleteIS5_EE10_M_deleterEv
FNDA:0,_ZNSt15__uniq_ptr_implINSt7__cxx1112basic_stringIcSt11char_traitsIcESaIcEEESt14default_deleteIS5_EE10_M_deleterEv
FN:155,_ZNSt15__uniq_ptr_implINSt7__cxx1118basic_stringstreamIcSt11char_traitsIcESaIcEEESt14default_deleteIS5_EE10_M_deleterEv
FNDA:0,_ZNSt15__uniq_ptr_implINSt7__cxx1118basic_stringstreamIcSt11char_traitsIcESaIcEEESt14default_deleteIS5_EE10_M_deleterEv
FN:286,_ZNSt10unique_ptrINSt7__cxx1112basic_stringIcSt11char_traitsIcESaIcEEESt14default_deleteIS5_EED2Ev
FNDA:0,_ZNSt10unique_ptrINSt7__cxx1112basic_stringIcSt11char_traitsIcESaIcEEESt14default_deleteIS5_EED2Ev
FN:286,_ZNSt10unique_ptrINSt7__cxx1118basic_stringstreamIcSt11char_traitsIcESaIcEEESt14default_deleteIS5_EED2Ev
FNDA:0,_ZNSt10unique_ptrINSt7__cxx1118basic_stringstreamIcSt11char_traitsIcESaIcEEESt14default_deleteIS5_EED2Ev
FN:352,_ZNKSt10unique_ptrINSt7__cxx1112basic_stringIcSt11char_traitsIcESaIcEEESt14default_deleteIS5_EEptEv
FNDA:0,_ZNKSt10unique_ptrINSt7__cxx1112basic_stringIcSt11char_traitsIcESaIcEEESt14default_deleteIS5_EEptEv
FN:360,_ZNKSt10unique_ptrINSt7__cxx1112basic_stringIcSt11char_traitsIcESaIcEEESt14default_deleteIS5_EE3getEv
FNDA:0,_ZNKSt10unique_ptrINSt7__cxx1112basic_stringIcSt11char_traitsIcESaIcEEESt14default_deleteIS5_EE3getEv
FN:365,_ZNSt10unique_ptrINSt7__cxx1112basic_stringIcSt11char_traitsIcESaIcEEESt14default_deleteIS5_EE11get_deleterEv
FNDA:0,_ZNSt10unique_ptrINSt7__cxx1112basic_stringIcSt11char_traitsIcESaIcEEESt14default_deleteIS5_EE11get_deleterEv
FN:365,_ZNSt10unique_ptrINSt7__cxx1118basic_stringstreamIcSt11char_traitsIcESaIcEEESt14default_deleteIS5_EE11get_deleterEv
FNDA:0,_ZNSt10unique_ptrINSt7__cxx1118basic_stringstreamIcSt11char_traitsIcESaIcEEESt14default_deleteIS5_EE11get_deleterEv
DA:75,0
DA:81,0
DA:82,0
DA:75,0
DA:81,0
DA:82,0
DA:153,0
DA:153,0
DA:154,0
DA:155,0
DA:155,0
DA:286,0
DA:290,0
DA:291,0
DA:292,0
DA:293,0
DA:294,0
DA:286,0
DA:290,0
DA:291,0
DA:292,0
DA:293,0
DA:294,0
DA:352,0
DA:355,0
DA:360,0
DA:361,0
DA:365,0
DA:366,0
DA:365,0
DA:366,0
end_of_record
SF:/home/egornulllet/Документы/vk/c++/matrix_calc/include/matrix_calc/vector.h
FN:37,_ZN3mtx6vectorD0Ev
FNDA:0,_ZN3mtx6vectorD0Ev
FN:37,_ZN3mtx6vectorD2Ev
FNDA:0,_ZN3mtx6vectorD2Ev
DA:37,0
DA:37,0
end_of_record
SF:/usr/include/c++/9/ext/alloc_traits.h
FN:97,_ZN9__gnu_cxx14__alloc_traitsISaIcEcE17_S_select_on_copyERKS1_
FNDA:0,_ZN9__gnu_cxx14__alloc_traitsISaIcEcE17_S_select_on_copyERKS1_
DA:97,0
DA:98,0
end_of_record
SF:/home/egornulllet/Документы/vk/c++/matrix_calc/include/matrix_calc/vector/row.h
FN:16,_ZN3mtx3rowD0Ev
FNDA:0,_ZN3mtx3rowD0Ev
FN:16,_ZN3mtx3rowD2Ev
FNDA:0,_ZN3mtx3rowD2Ev
DA:16,0
DA:16,0
end_of_record
SF:/usr/include/c++/9/ext/type_traits.h
FN:152,_ZN9__gnu_cxx17__is_null_pointerIcEEbPT_
FNDA:0,_ZN9__gnu_cxx17__is_null_pointerIcEEbPT_
FN:152,_ZN9__gnu_cxx17__is_null_pointerIKcEEbPT_
FNDA:0,_ZN9__gnu_cxx17__is_null_pointerIKcEEbPT_
DA:152,0
DA:153,0
DA:152,0
DA:153,0
end_of_record
SF:/usr/include/c++/9/bits/stl_iterator_base_types.h
FN:205,_ZSt19__iterator_categoryIPcENSt15iterator_traitsIT_E17iterator_categoryERKS2_
FNDA:0,_ZSt19__iterator_categoryIPcENSt15iterator_traitsIT_E17iterator_categoryERKS2_
FN:205,_ZSt19__iterator_categoryIPKcENSt15iterator_traitsIT_E17iterator_categoryERKS3_
FNDA:0,_ZSt19__iterator_categoryIPKcENSt15iterator_traitsIT_E17iterator_categoryERKS3_
DA:205,0
DA:206,0
DA:205,0
DA:206,0
end_of_record
SF:/usr/include/c++/9/bits/char_traits.h
FN:336,_ZNSt11char_traitsIcE6lengthEPKc
FNDA:0,_ZNSt11char_traitsIcE6lengthEPKc
DA:336,0
DA:342,0
end_of_record
SF:/usr/include/gtest/internal/gtest-port.h
FN:957,_ZN7testing8internal8GTestLog9GetStreamEv
FNDA:0,_ZN7testing8internal8GTestLog9GetStreamEv
DA:957,0
end_of_record
SF:/usr/include/c++/9/tuple
FN:113,_ZNSt10_Head_baseILm1ESt14default_deleteINSt7__cxx1118basic_stringstreamIcSt11char_traitsIcESaIcEEEELb1EE7_M_headERS8_
FNDA:0,_ZNSt10_Head_baseILm1ESt14default_deleteINSt7__cxx1118basic_stringstreamIcSt11char_traitsIcESaIcEEEELb1EE7_M_headERS8_
FN:113,_ZNSt10_Head_baseILm1ESt14default_deleteINSt7__cxx1112basic_stringIcSt11char_traitsIcESaIcEEEELb1EE7_M_headERS8_
FNDA:0,_ZNSt10_Head_baseILm1ESt14default_deleteINSt7__cxx1112basic_stringIcSt11char_traitsIcESaIcEEEELb1EE7_M_headERS8_
FN:160,_ZNSt10_Head_baseILm0EPNSt7__cxx1112basic_stringIcSt11char_traitsIcESaIcEEELb0EE7_M_headERS7_
FNDA:0,_ZNSt10_Head_baseILm0EPNSt7__cxx1112basic_stringIcSt11char_traitsIcESaIcEEELb0EE7_M_headERS7_
FN:160,_ZNSt10_Head_baseILm0EPNSt7__cxx1118basic_stringstreamIcSt11char_traitsIcESaIcEEELb0EE7_M_headERS7_
FNDA:0,_ZNSt10_Head_baseILm0EPNSt7__cxx1118basic_stringstreamIcSt11char_traitsIcESaIcEEELb0EE7_M_headERS7_
FN:163,_ZNSt10_Head_baseILm0EPNSt7__cxx1112basic_stringIcSt11char_traitsIcESaIcEEELb0EE7_M_headERKS7_
FNDA:0,_ZNSt10_Head_baseILm0EPNSt7__cxx1112basic_stringIcSt11char_traitsIcESaIcEEELb0EE7_M_headERKS7_
FN:195,_ZNSt11_Tuple_implILm0EJPNSt7__cxx1112basic_stringIcSt11char_traitsIcESaIcEEESt14default_deleteIS5_EEE7_M_headERS9_
FNDA:0,_ZNSt11_Tuple_implILm0EJPNSt7__cxx1112basic_stringIcSt11char_traitsIcESaIcEEESt14default_deleteIS5_EEE7_M_headERS9_
FN:195,_ZNSt11_Tuple_implILm0EJPNSt7__cxx1118basic_stringstreamIcSt11char_traitsIcESaIcEEESt14default_deleteIS5_EEE7_M_headERS9_
FNDA:0,_ZNSt11_Tuple_implILm0EJPNSt7__cxx1118basic_stringstreamIcSt11char_traitsIcESaIcEEESt14default_deleteIS5_EEE7_M_headERS9_
FN:198,_ZNSt11_Tuple_implILm0EJPNSt7__cxx1112basic_stringIcSt11char_traitsIcESaIcEEESt14default_deleteIS5_EEE7_M_headERKS9_
FNDA:0,_ZNSt11_Tuple_implILm0EJPNSt7__cxx1112basic_stringIcSt11char_traitsIcESaIcEEESt14default_deleteIS5_EEE7_M_headERKS9_
FN:334,_ZNSt11_Tuple_implILm1EJSt14default_deleteINSt7__cxx1112basic_stringIcSt11char_traitsIcESaIcEEEEEE7_M_headERS8_
FNDA:0,_ZNSt11_Tuple_implILm1EJSt14default_deleteINSt7__cxx1112basic_stringIcSt11char_traitsIcESaIcEEEEEE7_M_headERS8_
FN:334,_ZNSt11_Tuple_implILm1EJSt14default_deleteINSt7__cxx1118basic_stringstreamIcSt11char_traitsIcESaIcEEEEEE7_M_headERS8_
FNDA:0,_ZNSt11_Tuple_implILm1EJSt14default_deleteINSt7__cxx1118basic_stringstreamIcSt11char_traitsIcESaIcEEEEEE7_M_headERS8_
FN:1309,_ZSt12__get_helperILm1ESt14default_deleteINSt7__cxx1118basic_stringstreamIcSt11char_traitsIcESaIcEEEEJEERT0_RSt11_Tuple_implIXT_EJS8_DpT1_EE
FNDA:0,_ZSt12__get_helperILm1ESt14default_deleteINSt7__cxx1118basic_stringstreamIcSt11char_traitsIcESaIcEEEEJEERT0_RSt11_Tuple_implIXT_EJS8_DpT1_EE
FN:1309,_ZSt12__get_helperILm0EPNSt7__cxx1118basic_stringstreamIcSt11char_traitsIcESaIcEEEJSt14default_deleteIS5_EEERT0_RSt11_Tuple_implIXT_EJS9_DpT1_EE
FNDA:0,_ZSt12__get_helperILm0EPNSt7__cxx1118basic_stringstreamIcSt11char_traitsIcESaIcEEEJSt14default_deleteIS5_EEERT0_RSt11_Tuple_implIXT_EJS9_DpT1_EE
FN:1309,_ZSt12__get_helperILm0EPNSt7__cxx1112basic_stringIcSt11char_traitsIcESaIcEEEJSt14default_deleteIS5_EEERT0_RSt11_Tuple_implIXT_EJS9_DpT1_EE
FNDA:0,_ZSt12__get_helperILm0EPNSt7__cxx1112basic_stringIcSt11char_traitsIcESaIcEEEJSt14default_deleteIS5_EEERT0_RSt11_Tuple_implIXT_EJS9_DpT1_EE
FN:1309,_ZSt12__get_helperILm1ESt14default_deleteINSt7__cxx1112basic_stringIcSt11char_traitsIcESaIcEEEEJEERT0_RSt11_Tuple_implIXT_EJS8_DpT1_EE
FNDA:0,_ZSt12__get_helperILm1ESt14default_deleteINSt7__cxx1112basic_stringIcSt11char_traitsIcESaIcEEEEJEERT0_RSt11_Tuple_implIXT_EJS8_DpT1_EE
FN:1314,_ZSt12__get_helperILm0EPNSt7__cxx1112basic_stringIcSt11char_traitsIcESaIcEEEJSt14default_deleteIS5_EEERKT0_RKSt11_Tuple_implIXT_EJS9_DpT1_EE
FNDA:0,_ZSt12__get_helperILm0EPNSt7__cxx1112basic_stringIcSt11char_traitsIcESaIcEEEJSt14default_deleteIS5_EEERKT0_RKSt11_Tuple_implIXT_EJS9_DpT1_EE
FN:1320,_ZSt3getILm1EJPNSt7__cxx1112basic_stringIcSt11char_traitsIcESaIcEEESt14default_deleteIS5_EEERNSt13tuple_elementIXT_ESt5tupleIJDpT0_EEE4typeERSD_
FNDA:0,_ZSt3getILm1EJPNSt7__cxx1112basic_stringIcSt11char_traitsIcESaIcEEESt14default_deleteIS5_EEERNSt13tuple_elementIXT_ESt5tupleIJDpT0_EEE4typeERSD_
FN:1320,_ZSt3getILm1EJPNSt7__cxx1118basic_stringstreamIcSt11char_traitsIcESaIcEEESt14default_deleteIS5_EEERNSt13tuple_elementIXT_ESt5tupleIJDpT0_EEE4typeERSD_
FNDA:0,_ZSt3getILm1EJPNSt7__cxx1118basic_stringstreamIcSt11char_traitsIcESaIcEEESt14default_deleteIS5_EEERNSt13tuple_elementIXT_ESt5tupleIJDpT0_EEE4typeERSD_
FN:1320,_ZSt3getILm0EJPNSt7__cxx1112basic_stringIcSt11char_traitsIcESaIcEEESt14default_deleteIS5_EEERNSt13tuple_elementIXT_ESt5tupleIJDpT0_EEE4typeERSD_
FNDA:0,_ZSt3getILm0EJPNSt7__cxx1112basic_stringIcSt11char_traitsIcESaIcEEESt14default_deleteIS5_EEERNSt13tuple_elementIXT_ESt5tupleIJDpT0_EEE4typeERSD_
FN:1320,_ZSt3getILm0EJPNSt7__cxx1118basic_stringstreamIcSt11char_traitsIcESaIcEEESt14default_deleteIS5_EEERNSt13tuple_elementIXT_ESt5tupleIJDpT0_EEE4typeERSD_
FNDA:0,_ZSt3getILm0EJPNSt7__cxx1118basic_stringstreamIcSt11char_traitsIcESaIcEEESt14default_deleteIS5_EEERNSt13tuple_elementIXT_ESt5tupleIJDpT0_EEE4typeERSD_
FN:1326,_ZSt3getILm0EJPNSt7__cxx1112basic_stringIcSt11char_traitsIcESaIcEEESt14default_deleteIS5_EEERKNSt13tuple_elementIXT_ESt5tupleIJDpT0_EEE4typeERKSD_
FNDA:0,_ZSt3getILm0EJPNSt7__cxx1112basic_stringIcSt11char_traitsIcESaIcEEESt14default_deleteIS5_EEERKNSt13tuple_elementIXT_ESt5tupleIJDpT0_EEE4typeERKSD_
DA:113,0
DA:113,0
DA:160,0
DA:160,0
DA:163,0
DA:195,0
DA:195,0
DA:198,0
DA:334,0
DA:334,0
DA:1309,0
DA:1310,0
DA:1309,0
DA:1310,0
DA:1309,0
DA:1310,0
DA:1309,0
DA:1310,0
DA:1314,0
DA:1315,0
DA:1320,0
DA:1321,0
DA:1320,0
DA:1321,0
DA:1320,0
DA:1321,0
DA:1320,0
DA:1321,0
DA:1326,0
DA:1327,0
end_of_record
SF:/usr/include/c++/9/ext/new_allocator.h
FN:80,_ZN9__gnu_cxx13new_allocatorIcEC2Ev
FNDA:0,_ZN9__gnu_cxx13new_allocatorIcEC2Ev
FN:83,_ZN9__gnu_cxx13new_allocatorIcEC2ERKS1_
FNDA:0,_ZN9__gnu_cxx13new_allocatorIcEC2ERKS1_
FN:89,_ZN9__gnu_cxx13new_allocatorIcED2Ev
FNDA:0,_ZN9__gnu_cxx13new_allocatorIcED2Ev
DA:80,0
DA:83,0
DA:89,0
end_of_record
SF:/usr/include/c++/9/bits/basic_string.tcc
FN:206,_ZNSt7__cxx1112basic_stringIcSt11char_traitsIcESaIcEE12_M_constructIPcEEvT_S7_St20forward_iterator_tag
FNDA:0,_ZNSt7__cxx1112basic_stringIcSt11char_traitsIcESaIcEE12_M_constructIPcEEvT_S7_St20forward_iterator_tag
FN:206,_ZNSt7__cxx1112basic_stringIcSt11char_traitsIcESaIcEE12_M_constructIPKcEEvT_S8_St20forward_iterator_tag
FNDA:0,_ZNSt7__cxx1112basic_stringIcSt11char_traitsIcESaIcEE12_M_constructIPKcEEvT_S8_St20forward_iterator_tag
DA:206,0
DA:211,0
DA:212,0
DA:215,0
DA:217,0
DA:219,0
DA:220,0
DA:225,0
DA:226,0
DA:228,0
DA:229,0
DA:232,0
DA:233,0
DA:206,0
DA:211,0
DA:212,0
DA:215,0
DA:217,0
DA:219,0
DA:220,0
DA:225,0
DA:226,0
DA:228,0
DA:229,0
DA:232,0
DA:233,0
end_of_record
SF:/usr/include/c++/9/bits/move.h
FN:99,_ZSt4moveIRPNSt7__cxx1112basic_stringIcSt11char_traitsIcESaIcEEEEONSt16remove_referenceIT_E4typeEOS9_
FNDA:0,_ZSt4moveIRPNSt7__cxx1112basic_stringIcSt11char_traitsIcESaIcEEEEONSt16remove_referenceIT_E4typeEOS9_
FN:99,_ZSt4moveIRPNSt7__cxx1118basic_stringstreamIcSt11char_traitsIcESaIcEEEEONSt16remove_referenceIT_E4typeEOS9_
FNDA:0,_ZSt4moveIRPNSt7__cxx1118basic_stringstreamIcSt11char_traitsIcESaIcEEEEONSt16remove_referenceIT_E4typeEOS9_
FN:99,_ZSt4moveIRSaIcEEONSt16remove_referenceIT_E4typeEOS3_
FNDA:0,_ZSt4moveIRSaIcEEONSt16remove_referenceIT_E4typeEOS3_
FN:99,_ZSt4moveIRN3mtx3rowEEONSt16remove_referenceIT_E4typeEOS4_
FNDA:10,_ZSt4moveIRN3mtx3rowEEONSt16remove_referenceIT_E4typeEOS4_
FN:99,_ZSt4moveIRN3mtx6columnEEONSt16remove_referenceIT_E4typeEOS4_
FNDA:10,_ZSt4moveIRN3mtx6columnEEONSt16remove_referenceIT_E4typeEOS4_
FN:99,_ZSt4moveIRN3mtx6vectorEEONSt16remove_referenceIT_E4typeEOS4_
FNDA:10,_ZSt4moveIRN3mtx6vectorEEONSt16remove_referenceIT_E4typeEOS4_
DA:99,0
DA:100,0
DA:99,0
DA:100,0
DA:99,0
DA:100,0
DA:99,10
DA:100,10
DA:99,10
DA:100,10
DA:99,10
DA:100,10
end_of_record
SF:/usr/include/c++/9/bits/basic_string.h
FN:247,_ZNSt7__cxx1112basic_stringIcSt11char_traitsIcESaIcEE16_M_construct_auxIPcEEvT_S7_St12__false_type
FNDA:0,_ZNSt7__cxx1112basic_stringIcSt11char_traitsIcESaIcEE16_M_construct_auxIPcEEvT_S7_St12__false_type
FN:247,_ZNSt7__cxx1112basic_stringIcSt11char_traitsIcESaIcEE16_M_construct_auxIPKcEEvT_S8_St12__false_type
FNDA:0,_ZNSt7__cxx1112basic_stringIcSt11char_traitsIcESaIcEE16_M_construct_auxIPKcEEvT_S8_St12__false_type
FN:267,_ZNSt7__cxx1112basic_stringIcSt11char_traitsIcESaIcEE12_M_constructIPcEEvT_S7_
FNDA:0,_ZNSt7__cxx1112basic_stringIcSt11char_traitsIcESaIcEE12_M_constructIPcEEvT_S7_
FN:267,_ZNSt7__cxx1112basic_stringIcSt11char_traitsIcESaIcEE12_M_constructIPKcEEvT_S8_
FNDA:0,_ZNSt7__cxx1112basic_stringIcSt11char_traitsIcESaIcEE12_M_constructIPKcEEvT_S8_
DA:247,0
DA:251,0
DA:252,0
DA:247,0
DA:251,0
DA:252,0
DA:267,0
DA:270,0
DA:271,0
DA:267,0
DA:270,0
DA:271,0
end_of_record
SF:/usr/include/c++/9/iostream
end_of_record
SF:/usr/include/gtest/gtest.h
FN:312,_ZNK7testing15AssertionResultcvbEv
FNDA:0,_ZNK7testing15AssertionResultcvbEv
FN:321,_ZNK7testing15AssertionResult7messageEv
FNDA:0,_ZNK7testing15AssertionResult7messageEv
FN:325,_ZNK7testing15AssertionResult15failure_messageEv
FNDA:0,_ZNK7testing15AssertionResult15failure_messageEv
FN:417,_ZN7testing4Test14SetUpTestSuiteEv
FNDA:0,_ZN7testing4Test14SetUpTestSuiteEv
FN:427,_ZN7testing4Test17TearDownTestSuiteEv
FNDA:0,_ZN7testing4Test17TearDownTestSuiteEv
FN:431,_ZN7testing4Test16TearDownTestCaseEv
FNDA:0,_ZN7testing4Test16TearDownTestCaseEv
FN:432,_ZN7testing4Test13SetUpTestCaseEv
FNDA:0,_ZN7testing4Test13SetUpTestCaseEv
FN:513,_ZN7testing4Test5SetupEv
FNDA:0,_ZN7testing4Test5SetupEv
FN:1504,_ZN7testing8internal18CmpHelperEQFailureIdiEENS_15AssertionResultEPKcS4_RKT_RKT0_
FNDA:0,_ZN7testing8internal18CmpHelperEQFailureIdiEENS_15AssertionResultEPKcS4_RKT_RKT0_
FN:1504,_ZN7testing8internal18CmpHelperEQFailureImiEENS_15AssertionResultEPKcS4_RKT_RKT0_
FNDA:0,_ZN7testing8internal18CmpHelperEQFailureImiEENS_15AssertionResultEPKcS4_RKT_RKT0_
FN:1504,_ZN7testing8internal18CmpHelperEQFailureImmEENS_15AssertionResultEPKcS4_RKT_RKT0_
FNDA:0,_ZN7testing8internal18CmpHelperEQFailureImmEENS_15AssertionResultEPKcS4_RKT_RKT0_
FN:1523,_ZN7testing8internal11CmpHelperEQImiEENS_15AssertionResultEPKcS4_RKT_RKT0_
FNDA:0,_ZN7testing8internal11CmpHelperEQImiEENS_15AssertionResultEPKcS4_RKT_RKT0_
FN:1523,_ZN7testing8internal11CmpHelperEQIdiEENS_15AssertionResultEPKcS4_RKT_RKT0_
FNDA:15,_ZN7testing8internal11CmpHelperEQIdiEENS_15AssertionResultEPKcS4_RKT_RKT0_
FN:1523,_ZN7testing8internal11CmpHelperEQImmEENS_15AssertionResultEPKcS4_RKT_RKT0_
FNDA:0,_ZN7testing8internal11CmpHelperEQImmEENS_15AssertionResultEPKcS4_RKT_RKT0_
FN:1551,_ZN7testing8internal8EqHelper7CompareImiLPv0EEENS_15AssertionResultEPKcS6_RKT_RKT0_
FNDA:0,_ZN7testing8internal8EqHelper7CompareImiLPv0EEENS_15AssertionResultEPKcS6_RKT_RKT0_
FN:1551,_ZN7testing8internal8EqHelper7CompareIdiLPv0EEENS_15AssertionResultEPKcS6_RKT_RKT0_
FNDA:15,_ZN7testing8internal8EqHelper7CompareIdiLPv0EEENS_15AssertionResultEPKcS6_RKT_RKT0_
FN:1551,_ZN7testing8internal8EqHelper7CompareImmLPv0EEENS_15AssertionResultEPKcS6_RKT_RKT0_
FNDA:0,_ZN7testing8internal8EqHelper7CompareImmLPv0EEENS_15AssertionResultEPKcS6_RKT_RKT0_
FN:1730,_ZN7testing8internal24CmpHelperFloatingPointEQIdEENS_15AssertionResultEPKcS4_T_S5_
FNDA:0,_ZN7testing8internal24CmpHelperFloatingPointEQIdEENS_15AssertionResultEPKcS4_T_S5_
DA:312,0
DA:321,0
DA:322,0
DA:325,0
DA:417,0
DA:427,0
DA:431,0
DA:432,0
DA:513,0
DA:1504,0
DA:1511,0
DA:1504,0
DA:1511,0
DA:1504,0
DA:1511,0
DA:1523,0
DA:1527,0
DA:1528,0
DA:1531,0
DA:1523,15
DA:1527,15
DA:1528,15
DA:1531,0
DA:1523,0
DA:1527,0
DA:1528,0
DA:1531,0
DA:1551,0
DA:1554,0
DA:1551,15
DA:1554,15
DA:1551,0
DA:1554,0
DA:1730,0
DA:1734,0
DA:1736,0
DA:1737,0
DA:1740,0
DA:1741,0
DA:1742,0
DA:1744,0
DA:1745,0
DA:1746,0
DA:1752,0
end_of_record
SF:/usr/include/gtest/gtest-printers.h
FN:260,_ZN16testing_internal26DefaultPrintNonContainerToIiEEvRKT_PSo
FNDA:0,_ZN16testing_internal26DefaultPrintNonContainerToIiEEvRKT_PSo
FN:260,_ZN16testing_internal26DefaultPrintNonContainerToImEEvRKT_PSo
FNDA:0,_ZN16testing_internal26DefaultPrintNonContainerToImEEvRKT_PSo
FN:260,_ZN16testing_internal26DefaultPrintNonContainerToIdEEvRKT_PSo
FNDA:0,_ZN16testing_internal26DefaultPrintNonContainerToIdEEvRKT_PSo
FN:313,_ZN7testing8internal19FormatForComparisonImiE6FormatB5cxx11ERKm
FNDA:0,_ZN7testing8internal19FormatForComparisonImiE6FormatB5cxx11ERKm
FN:313,_ZN7testing8internal19FormatForComparisonIimE6FormatB5cxx11ERKi
FNDA:0,_ZN7testing8internal19FormatForComparisonIimE6FormatB5cxx11ERKi
FN:313,_ZN7testing8internal19FormatForComparisonIdiE6FormatB5cxx11ERKd
FNDA:0,_ZN7testing8internal19FormatForComparisonIdiE6FormatB5cxx11ERKd
FN:313,_ZN7testing8internal19FormatForComparisonIidE6FormatB5cxx11ERKi
FNDA:0,_ZN7testing8internal19FormatForComparisonIidE6FormatB5cxx11ERKi
FN:313,_ZN7testing8internal19FormatForComparisonImmE6FormatB5cxx11ERKm
FNDA:0,_ZN7testing8internal19FormatForComparisonImmE6FormatB5cxx11ERKm
FN:377,_ZN7testing8internal33FormatForComparisonFailureMessageImiEENSt7__cxx1112basic_stringIcSt11char_traitsIcESaIcEEERKT_RKT0_
FNDA:0,_ZN7testing8internal33FormatForComparisonFailureMessageImiEENSt7__cxx1112basic_stringIcSt11char_traitsIcESaIcEEERKT_RKT0_
FN:377,_ZN7testing8internal33FormatForComparisonFailureMessageIimEENSt7__cxx1112basic_stringIcSt11char_traitsIcESaIcEEERKT_RKT0_
FNDA:0,_ZN7testing8internal33FormatForComparisonFailureMessageIimEENSt7__cxx1112basic_stringIcSt11char_traitsIcESaIcEEERKT_RKT0_
FN:377,_ZN7testing8internal33FormatForComparisonFailureMessageIdiEENSt7__cxx1112basic_stringIcSt11char_traitsIcESaIcEEERKT_RKT0_
FNDA:0,_ZN7testing8internal33FormatForComparisonFailureMessageIdiEENSt7__cxx1112basic_stringIcSt11char_traitsIcESaIcEEERKT_RKT0_
FN:377,_ZN7testing8internal33FormatForComparisonFailureMessageIidEENSt7__cxx1112basic_stringIcSt11char_traitsIcESaIcEEERKT_RKT0_
FNDA:0,_ZN7testing8internal33FormatForComparisonFailureMessageIidEENSt7__cxx1112basic_stringIcSt11char_traitsIcESaIcEEERKT_RKT0_
FN:377,_ZN7testing8internal33FormatForComparisonFailureMessageImmEENSt7__cxx1112basic_stringIcSt11char_traitsIcESaIcEEERKT_RKT0_
FNDA:0,_ZN7testing8internal33FormatForComparisonFailureMessageImmEENSt7__cxx1112basic_stringIcSt11char_traitsIcESaIcEEERKT_RKT0_
FN:466,_ZN7testing8internal14DefaultPrintToIdEEvNS0_15WrapPrinterTypeILNS0_18DefaultPrinterTypeE3EEERKT_PSo
FNDA:0,_ZN7testing8internal14DefaultPrintToIdEEvNS0_15WrapPrinterTypeILNS0_18DefaultPrinterTypeE3EEERKT_PSo
FN:466,_ZN7testing8internal14DefaultPrintToIiEEvNS0_15WrapPrinterTypeILNS0_18DefaultPrinterTypeE3EEERKT_PSo
FNDA:0,_ZN7testing8internal14DefaultPrintToIiEEvNS0_15WrapPrinterTypeILNS0_18DefaultPrinterTypeE3EEERKT_PSo
FN:466,_ZN7testing8internal14DefaultPrintToImEEvNS0_15WrapPrinterTypeILNS0_18DefaultPrinterTypeE3EEERKT_PSo
FNDA:0,_ZN7testing8internal14DefaultPrintToImEEvNS0_15WrapPrinterTypeILNS0_18DefaultPrinterTypeE3EEERKT_PSo
FN:483,_ZN7testing8internal7PrintToIdEEvRKT_PSo
FNDA:0,_ZN7testing8internal7PrintToIdEEvRKT_PSo
FN:483,_ZN7testing8internal7PrintToIiEEvRKT_PSo
FNDA:0,_ZN7testing8internal7PrintToIiEEvRKT_PSo
FN:483,_ZN7testing8internal7PrintToImEEvRKT_PSo
FNDA:0,_ZN7testing8internal7PrintToImEEvRKT_PSo
FN:670,_ZN7testing8internal16UniversalPrinterImE5PrintERKmPSo
FNDA:0,_ZN7testing8internal16UniversalPrinterImE5PrintERKmPSo
FN:670,_ZN7testing8internal16UniversalPrinterIdE5PrintERKdPSo
FNDA:0,_ZN7testing8internal16UniversalPrinterIdE5PrintERKdPSo
FN:670,_ZN7testing8internal16UniversalPrinterIiE5PrintERKiPSo
FNDA:0,_ZN7testing8internal16UniversalPrinterIiE5PrintERKiPSo
FN:796,_ZN7testing8internal21UniversalTersePrinterImE5PrintERKmPSo
FNDA:0,_ZN7testing8internal21UniversalTersePrinterImE5PrintERKmPSo
FN:796,_ZN7testing8internal21UniversalTersePrinterIiE5PrintERKiPSo
FNDA:0,_ZN7testing8internal21UniversalTersePrinterIiE5PrintERKiPSo
FN:796,_ZN7testing8internal21UniversalTersePrinterIdE5PrintERKdPSo
FNDA:0,_ZN7testing8internal21UniversalTersePrinterIdE5PrintERKdPSo
FN:865,_ZN7testing8internal14UniversalPrintIiEEvRKT_PSo
FNDA:0,_ZN7testing8internal14UniversalPrintIiEEvRKT_PSo
FN:865,_ZN7testing8internal14UniversalPrintIdEEvRKT_PSo
FNDA:0,_ZN7testing8internal14UniversalPrintIdEEvRKT_PSo
FN:865,_ZN7testing8internal14UniversalPrintImEEvRKT_PSo
FNDA:0,_ZN7testing8internal14UniversalPrintImEEvRKT_PSo
FN:915,_ZN7testing13PrintToStringImEENSt7__cxx1112basic_stringIcSt11char_traitsIcESaIcEEERKT_
FNDA:0,_ZN7testing13PrintToStringImEENSt7__cxx1112basic_stringIcSt11char_traitsIcESaIcEEERKT_
FN:915,_ZN7testing13PrintToStringIiEENSt7__cxx1112basic_stringIcSt11char_traitsIcESaIcEEERKT_
FNDA:0,_ZN7testing13PrintToStringIiEENSt7__cxx1112basic_stringIcSt11char_traitsIcESaIcEEERKT_
FN:915,_ZN7testing13PrintToStringIdEENSt7__cxx1112basic_stringIcSt11char_traitsIcESaIcEEERKT_
FNDA:0,_ZN7testing13PrintToStringIdEENSt7__cxx1112basic_stringIcSt11char_traitsIcESaIcEEERKT_
DA:260,0
DA:287,0
DA:288,0
DA:260,0
DA:287,0
DA:288,0
DA:260,0
DA:287,0
DA:288,0
DA:313,0
DA:314,0
DA:313,0
DA:314,0
DA:313,0
DA:314,0
DA:313,0
DA:314,0
DA:313,0
DA:314,0
DA:377,0
DA:379,0
DA:377,0
DA:379,0
DA:377,0
DA:379,0
DA:377,0
DA:379,0
DA:377,0
DA:379,0
DA:466,0
DA:468,0
DA:469,0
DA:466,0
DA:468,0
DA:469,0
DA:466,0
DA:468,0
DA:469,0
DA:483,0
DA:503,0
DA:514,0
DA:483,0
DA:503,0
DA:514,0
DA:483,0
DA:503,0
DA:514,0
DA:670,0
DA:679,0
DA:680,0
DA:670,0
DA:679,0
DA:680,0
DA:670,0
DA:679,0
DA:680,0
DA:796,0
DA:797,0
DA:798,0
DA:796,0
DA:797,0
DA:798,0
DA:796,0
DA:797,0
DA:798,0
DA:865,0
DA:869,0
DA:870,0
DA:865,0
DA:869,0
DA:870,0
DA:865,0
DA:869,0
DA:870,0
DA:915,0
DA:916,0
DA:917,0
DA:918,0
DA:915,0
DA:916,0
DA:917,0
DA:918,0
DA:915,0
DA:916,0
DA:917,0
DA:918,0
end_of_record
SF:/usr/include/c++/9/bits/alloc_traits.h
FN:513,_ZNSt16allocator_traitsISaIcEE37select_on_container_copy_constructionERKS0_
FNDA:0,_ZNSt16allocator_traitsISaIcEE37select_on_container_copy_constructionERKS0_
DA:513,0
DA:514,0
end_of_record
SF:/usr/include/c++/9/iomanip
FN:195,_ZSt12setprecisioni
FNDA:0,_ZSt12setprecisioni
DA:195,0
DA:196,0
end_of_record
TN:build_test_test_matrix_lib
SF:/home/egornulllet/Документы/vk/c++/matrix_calc/test/matrix_test.cpp
FN:13,_ZN10TestMatrix5SetUpEv
FNDA:36,_ZN10TestMatrix5SetUpEv
FN:36,_ZN10TestMatrixC2Ev
FNDA:36,_ZN10TestMatrixC2Ev
FN:38,_ZN10TestMatrix8TearDownEv
FNDA:36,_ZN10TestMatrix8TearDownEv
FN:41,_ZN32TestMatrix_size_value_const_TestC2Ev
FNDA:2,_ZN32TestMatrix_size_value_const_TestC2Ev
FN:41,_ZN32TestMatrix_size_value_const_Test8TestBodyEv
FNDA:2,_ZN32TestMatrix_size_value_const_Test8TestBodyEv
FN:63,_ZN34TestMatrix_vector_list_constr_TestC2Ev
FNDA:2,_ZN34TestMatrix_vector_list_constr_TestC2Ev
FN:63,_ZN34TestMatrix_vector_list_constr_Test8TestBodyEv
FNDA:2,_ZN34TestMatrix_vector_list_constr_Test8TestBodyEv
FN:87,_ZN34TestMatrix_column_list_constr_TestC2Ev
FNDA:2,_ZN34TestMatrix_column_list_constr_TestC2Ev
FN:87,_ZN34TestMatrix_column_list_constr_Test8TestBodyEv
FNDA:2,_ZN34TestMatrix_column_list_constr_Test8TestBodyEv
FN:110,_ZN24TestMatrix_list_row_Test8TestBodyEv
FNDA:2,_ZN24TestMatrix_list_row_Test8TestBodyEv
FN:110,_ZN24TestMatrix_list_row_TestC2Ev
FNDA:2,_ZN24TestMatrix_list_row_TestC2Ev
FN:134,_ZN27TestMatrix_copy_constr_TestC2Ev
FNDA:2,_ZN27TestMatrix_copy_constr_TestC2Ev
FN:134,_ZN27TestMatrix_copy_constr_Test8TestBodyEv
FNDA:2,_ZN27TestMatrix_copy_constr_Test8TestBodyEv
FN:147,_ZN27TestMatrix_move_constr_TestC2Ev
FNDA:2,_ZN27TestMatrix_move_constr_TestC2Ev
FN:147,_ZN27TestMatrix_move_constr_Test8TestBodyEv
FNDA:2,_ZN27TestMatrix_move_constr_Test8TestBodyEv
FN:165,_ZN23TestMatrix_get_row_TestC2Ev
FNDA:2,_ZN23TestMatrix_get_row_TestC2Ev
FN:165,_ZN23TestMatrix_get_row_Test8TestBodyEv
FNDA:2,_ZN23TestMatrix_get_row_Test8TestBodyEv
FN:178,_ZN23TestMatrix_get_col_TestC2Ev
FNDA:2,_ZN23TestMatrix_get_col_TestC2Ev
FN:178,_ZN23TestMatrix_get_col_Test8TestBodyEv
FNDA:2,_ZN23TestMatrix_get_col_Test8TestBodyEv
FN:187,_ZN25TestMatrix_main_diag_TestC2Ev
FNDA:2,_ZN25TestMatrix_main_diag_TestC2Ev
FN:187,_ZN25TestMatrix_main_diag_Test8TestBodyEv
FNDA:2,_ZN25TestMatrix_main_diag_Test8TestBodyEv
FN:196,_ZN27TestMatrix_second_diag_Test8TestBodyEv
FNDA:2,_ZN27TestMatrix_second_diag_Test8TestBodyEv
FN:196,_ZN27TestMatrix_second_diag_TestC2Ev
FNDA:2,_ZN27TestMatrix_second_diag_TestC2Ev
FN:205,_ZN25TestMatrix_transpose_TestC2Ev
FNDA:2,_ZN25TestMatrix_transpose_TestC2Ev
FN:205,_ZN25TestMatrix_transpose_Test8TestBodyEv
FNDA:2,_ZN25TestMatrix_transpose_Test8TestBodyEv
FN:235,_ZN27TestMatrix_determinant_TestC2Ev
FNDA:2,_ZN27TestMatrix_determinant_TestC2Ev
FN:235,_ZN27TestMatrix_determinant_Test8TestBodyEv
FNDA:2,_ZN27TestMatrix_determinant_Test8TestBodyEv
FN:247,_ZN23TestMatrix_inverse_TestC2Ev
FNDA:2,_ZN23TestMatrix_inverse_TestC2Ev
FN:247,_ZN23TestMatrix_inverse_Test8TestBodyEv
FNDA:2,_ZN23TestMatrix_inverse_Test8TestBodyEv
FN:274,_ZN27TestMatrix_plus_equals_TestC2Ev
FNDA:2,_ZN27TestMatrix_plus_equals_TestC2Ev
FN:274,_ZN27TestMatrix_plus_equals_Test8TestBodyEv
FNDA:2,_ZN27TestMatrix_plus_equals_Test8TestBodyEv
FN:285,_ZN35TestMatrix_muilt_equals_matrix_TestC2Ev
FNDA:2,_ZN35TestMatrix_muilt_equals_matrix_TestC2Ev
FN:285,_ZN35TestMatrix_muilt_equals_matrix_Test8TestBodyEv
FNDA:2,_ZN35TestMatrix_muilt_equals_matrix_Test8TestBodyEv
FN:300,_ZN35TestMatrix_muilt_equals_double_TestC2Ev
FNDA:2,_ZN35TestMatrix_muilt_equals_double_TestC2Ev
FN:300,_ZN35TestMatrix_muilt_equals_double_Test8TestBodyEv
FNDA:2,_ZN35TestMatrix_muilt_equals_double_Test8TestBodyEv
FN:310,_ZN26TestMatrix_append_row_TestC2Ev
FNDA:2,_ZN26TestMatrix_append_row_TestC2Ev
FN:310,_ZN26TestMatrix_append_row_Test8TestBodyEv
FNDA:2,_ZN26TestMatrix_append_row_Test8TestBodyEv
FN:327,_ZN29TestMatrix_append_column_TestC2Ev
FNDA:2,_ZN29TestMatrix_append_column_TestC2Ev
FN:327,_ZN29TestMatrix_append_column_Test8TestBodyEv
FNDA:2,_ZN29TestMatrix_append_column_Test8TestBodyEv
FN:348,_ZN12TestCtMatrix5SetUpEv
FNDA:4,_ZN12TestCtMatrix5SetUpEv
FN:356,_ZN12TestCtMatrix8TearDownEv
FNDA:4,_ZN12TestCtMatrix8TearDownEv
FN:361,_ZN30TestCtMatrix_vaule_constr_TestC2Ev
FNDA:2,_ZN30TestCtMatrix_vaule_constr_TestC2Ev
FN:361,_ZN30TestCtMatrix_vaule_constr_Test8TestBodyEv
FNDA:2,_ZN30TestCtMatrix_vaule_constr_Test8TestBodyEv
FN:377,_ZN29TestCtMatrix_copy_constr_Test8TestBodyEv
FNDA:2,_ZN29TestCtMatrix_copy_constr_Test8TestBodyEv
FN:377,_ZN29TestCtMatrix_copy_constr_TestC2Ev
FNDA:2,_ZN29TestCtMatrix_copy_constr_TestC2Ev
DA:13,36
DA:14,108
DA:15,216
DA:16,144
DA:19,108
DA:20,288
DA:21,216
DA:24,144
DA:25,324
DA:26,216
DA:29,144
DA:30,432
DA:31,324
DA:34,36
DA:36,36
DA:37,36
DA:38,36
DA:41,2
DA:42,2
DA:43,2
DA:44,2
DA:45,2
DA:46,2
DA:47,2
DA:49,4
DA:50,6
DA:51,4
DA:53,4
DA:54,6
DA:55,4
DA:58,4
DA:59,2
DA:60,2
DA:61,2
DA:41,2
DA:63,2
DA:64,4
DA:65,4
DA:66,4
DA:67,10
DA:69,2
DA:70,2
DA:71,2
DA:72,2
DA:73,2
DA:74,2
DA:75,2
DA:76,2
DA:77,2
DA:79,2
DA:80,2
DA:82,4
DA:83,10
DA:84,2
DA:63,2
DA:87,2
DA:88,4
DA:89,4
DA:90,4
DA:91,10
DA:93,2
DA:94,2
DA:95,2
DA:96,2
DA:97,2
DA:98,2
DA:99,2
DA:100,2
DA:101,2
DA:103,2
DA:104,2
DA:106,4
DA:107,10
DA:108,2
DA:87,2
DA:110,2
DA:111,4
DA:112,4
DA:113,4
DA:114,10
DA:116,2
DA:117,2
DA:118,2
DA:119,2
DA:120,2
DA:121,2
DA:122,2
DA:123,2
DA:124,2
DA:126,2
DA:127,2
DA:129,4
DA:130,10
DA:131,2
DA:110,2
DA:134,2
DA:135,4
DA:137,2
DA:138,2
DA:140,8
DA:141,24
DA:142,18
DA:145,2
DA:134,2
DA:147,2
DA:148,4
DA:149,4
DA:151,2
DA:152,2
DA:154,8
DA:155,24
DA:156,18
DA:160,2
DA:161,2
DA:162,4
DA:163,2
DA:147,2
DA:165,2
DA:166,4
DA:168,4
DA:170,2
DA:171,2
DA:172,2
DA:173,2
DA:175,4
DA:176,2
DA:165,2
DA:178,2
DA:179,4
DA:180,4
DA:181,2
DA:182,2
DA:184,4
DA:185,2
DA:178,2
DA:187,2
DA:188,4
DA:189,2
DA:190,2
DA:191,2
DA:193,4
DA:194,2
DA:187,2
DA:196,2
DA:197,4
DA:198,2
DA:199,2
DA:200,2
DA:202,4
DA:203,2
DA:196,2
DA:205,2
DA:206,4
DA:207,4
DA:209,2
DA:210,2
DA:211,2
DA:212,2
DA:213,8
DA:214,24
DA:215,18
DA:216,18
DA:219,4
DA:220,4
DA:222,2
DA:223,2
DA:224,2
DA:225,2
DA:227,6
DA:228,16
DA:229,12
DA:230,12
DA:233,2
DA:205,2
DA:235,2
DA:236,2
DA:237,2
DA:238,2
DA:239,2
DA:240,2
DA:241,2
DA:242,2
DA:244,4
DA:245,2
DA:235,2
DA:247,2
DA:248,2
DA:249,4
DA:250,2
DA:251,2
DA:252,2
DA:253,2
DA:254,2
DA:255,2
DA:256,2
DA:257,2
DA:258,2
DA:260,4
DA:262,4
DA:263,2
DA:264,2
DA:265,2
DA:266,2
DA:267,2
DA:268,2
DA:269,2
DA:270,2
DA:271,2
DA:272,2
DA:247,2
DA:274,2
DA:275,4
DA:276,2
DA:277,8
DA:278,24
DA:279,18
DA:282,4
DA:283,2
DA:274,2
DA:285,2
DA:286,4
DA:287,2
DA:289,2
DA:290,2
DA:292,2
DA:293,2
DA:294,2
DA:295,2
DA:297,4
DA:298,2
DA:285,2
DA:300,2
DA:301,4
DA:302,2
DA:303,6
DA:304,16
DA:305,12
DA:308,2
DA:300,2
DA:310,2
DA:311,4
DA:312,2
DA:314,2
DA:315,2
DA:317,2
DA:318,2
DA:319,2
DA:321,6
DA:323,4
DA:324,6
DA:325,2
DA:310,2
DA:327,2
DA:328,4
DA:329,2
DA:331,2
DA:332,2
DA:334,2
DA:335,2
DA:336,2
DA:338,6
DA:340,4
DA:341,6
DA:342,2
DA:327,2
DA:348,4
DA:349,16
DA:350,48
DA:351,36
DA:354,4
DA:356,4
DA:358,4
DA:361,2
DA:362,4
DA:363,8
DA:364,6
DA:366,4
DA:368,8
DA:369,6
DA:372,4
DA:373,2
DA:374,2
DA:375,2
DA:361,2
DA:377,2
DA:378,4
DA:379,8
DA:380,6
DA:382,2
DA:377,2
end_of_record
SF:/usr/include/c++/9/bits/basic_string.h
FN:247,_ZNSt7__cxx1112basic_stringIcSt11char_traitsIcESaIcEE16_M_construct_auxIPcEEvT_S7_St12__false_type
FNDA:0,_ZNSt7__cxx1112basic_stringIcSt11char_traitsIcESaIcEE16_M_construct_auxIPcEEvT_S7_St12__false_type
FN:247,_ZNSt7__cxx1112basic_stringIcSt11char_traitsIcESaIcEE16_M_construct_auxIPKcEEvT_S8_St12__false_type
FNDA:0,_ZNSt7__cxx1112basic_stringIcSt11char_traitsIcESaIcEE16_M_construct_auxIPKcEEvT_S8_St12__false_type
FN:267,_ZNSt7__cxx1112basic_stringIcSt11char_traitsIcESaIcEE12_M_constructIPcEEvT_S7_
FNDA:0,_ZNSt7__cxx1112basic_stringIcSt11char_traitsIcESaIcEE12_M_constructIPcEEvT_S7_
FN:267,_ZNSt7__cxx1112basic_stringIcSt11char_traitsIcESaIcEE12_M_constructIPKcEEvT_S8_
FNDA:0,_ZNSt7__cxx1112basic_stringIcSt11char_traitsIcESaIcEE12_M_constructIPKcEEvT_S8_
DA:247,0
DA:251,0
DA:252,0
DA:247,0
DA:251,0
DA:252,0
DA:267,0
DA:270,0
DA:271,0
DA:267,0
DA:270,0
DA:271,0
end_of_record
SF:/usr/include/c++/9/bits/basic_string.tcc
FN:206,_ZNSt7__cxx1112basic_stringIcSt11char_traitsIcESaIcEE12_M_constructIPcEEvT_S7_St20forward_iterator_tag
FNDA:0,_ZNSt7__cxx1112basic_stringIcSt11char_traitsIcESaIcEE12_M_constructIPcEEvT_S7_St20forward_iterator_tag
FN:206,_ZNSt7__cxx1112basic_stringIcSt11char_traitsIcESaIcEE12_M_constructIPKcEEvT_S8_St20forward_iterator_tag
FNDA:0,_ZNSt7__cxx1112basic_stringIcSt11char_traitsIcESaIcEE12_M_constructIPKcEEvT_S8_St20forward_iterator_tag
DA:206,0
DA:211,0
DA:212,0
DA:215,0
DA:217,0
DA:219,0
DA:220,0
DA:225,0
DA:226,0
DA:228,0
DA:229,0
DA:232,0
DA:233,0
DA:206,0
DA:211,0
DA:212,0
DA:215,0
DA:217,0
DA:219,0
DA:220,0
DA:225,0
DA:226,0
DA:228,0
DA:229,0
DA:232,0
DA:233,0
end_of_record
SF:/usr/include/c++/9/bits/move.h
FN:99,_ZSt4moveIRPNSt7__cxx1112basic_stringIcSt11char_traitsIcESaIcEEEEONSt16remove_referenceIT_E4typeEOS9_
FNDA:0,_ZSt4moveIRPNSt7__cxx1112basic_stringIcSt11char_traitsIcESaIcEEEEONSt16remove_referenceIT_E4typeEOS9_
FN:99,_ZSt4moveIRPNSt7__cxx1118basic_stringstreamIcSt11char_traitsIcESaIcEEEEONSt16remove_referenceIT_E4typeEOS9_
FNDA:0,_ZSt4moveIRPNSt7__cxx1118basic_stringstreamIcSt11char_traitsIcESaIcEEEEONSt16remove_referenceIT_E4typeEOS9_
FN:99,_ZSt4moveIRSaIcEEONSt16remove_referenceIT_E4typeEOS3_
FNDA:0,_ZSt4moveIRSaIcEEONSt16remove_referenceIT_E4typeEOS3_
FN:99,_ZSt4moveIRN3mtx6matrixEEONSt16remove_referenceIT_E4typeEOS4_
FNDA:2,_ZSt4moveIRN3mtx6matrixEEONSt16remove_referenceIT_E4typeEOS4_
DA:99,0
DA:100,0
DA:99,0
DA:100,0
DA:99,0
DA:100,0
DA:99,2
DA:100,2
end_of_record
SF:/usr/include/gtest/gtest.h
FN:293,_ZN7testing15AssertionResultC2IbEERKT_PNSt9enable_ifIXntsrSt14is_convertibleIS2_S0_E5valueEvE4typeE
FNDA:18,_ZN7testing15AssertionResultC2IbEERKT_PNSt9enable_ifIXntsrSt14is_convertibleIS2_S0_E5valueEvE4typeE
FN:312,_ZNK7testing15AssertionResultcvbEv
FNDA:538,_ZNK7testing15AssertionResultcvbEv
FN:321,_ZNK7testing15AssertionResult7messageEv
FNDA:0,_ZNK7testing15AssertionResult7messageEv
FN:325,_ZNK7testing15AssertionResult15failure_messageEv
FNDA:0,_ZNK7testing15AssertionResult15failure_messageEv
FN:417,_ZN7testing4Test14SetUpTestSuiteEv
FNDA:0,_ZN7testing4Test14SetUpTestSuiteEv
FN:427,_ZN7testing4Test17TearDownTestSuiteEv
FNDA:0,_ZN7testing4Test17TearDownTestSuiteEv
FN:431,_ZN7testing4Test16TearDownTestCaseEv
FNDA:0,_ZN7testing4Test16TearDownTestCaseEv
FN:432,_ZN7testing4Test13SetUpTestCaseEv
FNDA:0,_ZN7testing4Test13SetUpTestCaseEv
FN:513,_ZN7testing4Test5SetupEv
FNDA:0,_ZN7testing4Test5SetupEv
FN:1504,_ZN7testing8internal18CmpHelperEQFailureImmEENS_15AssertionResultEPKcS4_RKT_RKT0_
FNDA:0,_ZN7testing8internal18CmpHelperEQFailureImmEENS_15AssertionResultEPKcS4_RKT_RKT0_
FN:1504,_ZN7testing8internal18CmpHelperEQFailureImiEENS_15AssertionResultEPKcS4_RKT_RKT0_
FNDA:0,_ZN7testing8internal18CmpHelperEQFailureImiEENS_15AssertionResultEPKcS4_RKT_RKT0_
FN:1523,_ZN7testing8internal11CmpHelperEQImmEENS_15AssertionResultEPKcS4_RKT_RKT0_
FNDA:46,_ZN7testing8internal11CmpHelperEQImmEENS_15AssertionResultEPKcS4_RKT_RKT0_
FN:1523,_ZN7testing8internal11CmpHelperEQImiEENS_15AssertionResultEPKcS4_RKT_RKT0_
FNDA:48,_ZN7testing8internal11CmpHelperEQImiEENS_15AssertionResultEPKcS4_RKT_RKT0_
FN:1551,_ZN7testing8internal8EqHelper7CompareImmLPv0EEENS_15AssertionResultEPKcS6_RKT_RKT0_
FNDA:46,_ZN7testing8internal8EqHelper7CompareImmLPv0EEENS_15AssertionResultEPKcS6_RKT_RKT0_
FN:1551,_ZN7testing8internal8EqHelper7CompareImiLPv0EEENS_15AssertionResultEPKcS6_RKT_RKT0_
FNDA:48,_ZN7testing8internal8EqHelper7CompareImiLPv0EEENS_15AssertionResultEPKcS6_RKT_RKT0_
FN:1730,_ZN7testing8internal24CmpHelperFloatingPointEQIdEENS_15AssertionResultEPKcS4_T_S5_
FNDA:420,_ZN7testing8internal24CmpHelperFloatingPointEQIdEENS_15AssertionResultEPKcS4_T_S5_
DA:293,18
DA:299,18
DA:312,538
DA:321,0
DA:322,0
DA:325,0
DA:417,0
DA:427,0
DA:431,0
DA:432,0
DA:513,0
DA:1504,0
DA:1511,0
DA:1504,0
DA:1511,0
DA:1523,46
DA:1527,46
DA:1528,46
DA:1531,0
DA:1523,48
DA:1527,48
DA:1528,48
DA:1531,0
DA:1551,46
DA:1554,46
DA:1551,48
DA:1554,48
DA:1730,420
DA:1734,420
DA:1736,420
DA:1737,420
DA:1740,0
DA:1741,0
DA:1742,0
DA:1744,0
DA:1745,0
DA:1746,0
DA:1752,0
end_of_record
SF:/usr/include/c++/9/iostream
end_of_record
SF:/usr/include/c++/9/bits/alloc_traits.h
FN:513,_ZNSt16allocator_traitsISaIcEE37select_on_container_copy_constructionERKS0_
FNDA:0,_ZNSt16allocator_traitsISaIcEE37select_on_container_copy_constructionERKS0_
DA:513,0
DA:514,0
end_of_record
SF:/usr/include/c++/9/iomanip
FN:195,_ZSt12setprecisioni
FNDA:0,_ZSt12setprecisioni
DA:195,0
DA:196,0
end_of_record
SF:/usr/include/gtest/gtest-printers.h
FN:260,_ZN16testing_internal26DefaultPrintNonContainerToImEEvRKT_PSo
FNDA:0,_ZN16testing_internal26DefaultPrintNonContainerToImEEvRKT_PSo
FN:260,_ZN16testing_internal26DefaultPrintNonContainerToIiEEvRKT_PSo
FNDA:0,_ZN16testing_internal26DefaultPrintNonContainerToIiEEvRKT_PSo
FN:313,_ZN7testing8internal19FormatForComparisonImiE6FormatB5cxx11ERKm
FNDA:0,_ZN7testing8internal19FormatForComparisonImiE6FormatB5cxx11ERKm
FN:313,_ZN7testing8internal19FormatForComparisonIimE6FormatB5cxx11ERKi
FNDA:0,_ZN7testing8internal19FormatForComparisonIimE6FormatB5cxx11ERKi
FN:313,_ZN7testing8internal19FormatForComparisonImmE6FormatB5cxx11ERKm
FNDA:0,_ZN7testing8internal19FormatForComparisonImmE6FormatB5cxx11ERKm
FN:377,_ZN7testing8internal33FormatForComparisonFailureMessageImiEENSt7__cxx1112basic_stringIcSt11char_traitsIcESaIcEEERKT_RKT0_
FNDA:0,_ZN7testing8internal33FormatForComparisonFailureMessageImiEENSt7__cxx1112basic_stringIcSt11char_traitsIcESaIcEEERKT_RKT0_
FN:377,_ZN7testing8internal33FormatForComparisonFailureMessageIimEENSt7__cxx1112basic_stringIcSt11char_traitsIcESaIcEEERKT_RKT0_
FNDA:0,_ZN7testing8internal33FormatForComparisonFailureMessageIimEENSt7__cxx1112basic_stringIcSt11char_traitsIcESaIcEEERKT_RKT0_
FN:377,_ZN7testing8internal33FormatForComparisonFailureMessageImmEENSt7__cxx1112basic_stringIcSt11char_traitsIcESaIcEEERKT_RKT0_
FNDA:0,_ZN7testing8internal33FormatForComparisonFailureMessageImmEENSt7__cxx1112basic_stringIcSt11char_traitsIcESaIcEEERKT_RKT0_
FN:466,_ZN7testing8internal14DefaultPrintToImEEvNS0_15WrapPrinterTypeILNS0_18DefaultPrinterTypeE3EEERKT_PSo
FNDA:0,_ZN7testing8internal14DefaultPrintToImEEvNS0_15WrapPrinterTypeILNS0_18DefaultPrinterTypeE3EEERKT_PSo
FN:466,_ZN7testing8internal14DefaultPrintToIiEEvNS0_15WrapPrinterTypeILNS0_18DefaultPrinterTypeE3EEERKT_PSo
FNDA:0,_ZN7testing8internal14DefaultPrintToIiEEvNS0_15WrapPrinterTypeILNS0_18DefaultPrinterTypeE3EEERKT_PSo
FN:483,_ZN7testing8internal7PrintToImEEvRKT_PSo
FNDA:0,_ZN7testing8internal7PrintToImEEvRKT_PSo
FN:483,_ZN7testing8internal7PrintToIiEEvRKT_PSo
FNDA:0,_ZN7testing8internal7PrintToIiEEvRKT_PSo
FN:670,_ZN7testing8internal16UniversalPrinterImE5PrintERKmPSo
FNDA:0,_ZN7testing8internal16UniversalPrinterImE5PrintERKmPSo
FN:670,_ZN7testing8internal16UniversalPrinterIiE5PrintERKiPSo
FNDA:0,_ZN7testing8internal16UniversalPrinterIiE5PrintERKiPSo
FN:796,_ZN7testing8internal21UniversalTersePrinterIiE5PrintERKiPSo
FNDA:0,_ZN7testing8internal21UniversalTersePrinterIiE5PrintERKiPSo
FN:796,_ZN7testing8internal21UniversalTersePrinterImE5PrintERKmPSo
FNDA:0,_ZN7testing8internal21UniversalTersePrinterImE5PrintERKmPSo
FN:865,_ZN7testing8internal14UniversalPrintIiEEvRKT_PSo
FNDA:0,_ZN7testing8internal14UniversalPrintIiEEvRKT_PSo
FN:865,_ZN7testing8internal14UniversalPrintImEEvRKT_PSo
FNDA:0,_ZN7testing8internal14UniversalPrintImEEvRKT_PSo
FN:915,_ZN7testing13PrintToStringIiEENSt7__cxx1112basic_stringIcSt11char_traitsIcESaIcEEERKT_
FNDA:0,_ZN7testing13PrintToStringIiEENSt7__cxx1112basic_stringIcSt11char_traitsIcESaIcEEERKT_
FN:915,_ZN7testing13PrintToStringImEENSt7__cxx1112basic_stringIcSt11char_traitsIcESaIcEEERKT_
FNDA:0,_ZN7testing13PrintToStringImEENSt7__cxx1112basic_stringIcSt11char_traitsIcESaIcEEERKT_
DA:260,0
DA:287,0
DA:288,0
DA:260,0
DA:287,0
DA:288,0
DA:313,0
DA:314,0
DA:313,0
DA:314,0
DA:313,0
DA:314,0
DA:377,0
DA:379,0
DA:377,0
DA:379,0
DA:377,0
DA:379,0
DA:466,0
DA:468,0
DA:469,0
DA:466,0
DA:468,0
DA:469,0
DA:483,0
DA:503,0
DA:514,0
DA:483,0
DA:503,0
DA:514,0
DA:670,0
DA:679,0
DA:680,0
DA:670,0
DA:679,0
DA:680,0
DA:796,0
DA:797,0
DA:798,0
DA:796,0
DA:797,0
DA:798,0
DA:865,0
DA:869,0
DA:870,0
DA:865,0
DA:869,0
DA:870,0
DA:915,0
DA:916,0
DA:917,0
DA:918,0
DA:915,0
DA:916,0
DA:917,0
DA:918,0
end_of_record
SF:/home/egornulllet/Документы/vk/c++/matrix_calc/include/matrix_calc/vector/column.h
FN:15,_ZN3mtx6columnD0Ev
FNDA:0,_ZN3mtx6columnD0Ev
FN:15,_ZN3mtx6columnD2Ev
FNDA:88,_ZN3mtx6columnD2Ev
DA:15,0
DA:15,88
end_of_record
SF:/usr/include/c++/9/bits/stl_iterator_base_funcs.h
FN:98,_ZSt10__distanceIPcENSt15iterator_traitsIT_E15difference_typeES2_S2_St26random_access_iterator_tag
FNDA:0,_ZSt10__distanceIPcENSt15iterator_traitsIT_E15difference_typeES2_S2_St26random_access_iterator_tag
FN:98,_ZSt10__distanceIPKcENSt15iterator_traitsIT_E15difference_typeES3_S3_St26random_access_iterator_tag
FNDA:0,_ZSt10__distanceIPKcENSt15iterator_traitsIT_E15difference_typeES3_S3_St26random_access_iterator_tag
FN:138,_ZSt8distanceIPcENSt15iterator_traitsIT_E15difference_typeES2_S2_
FNDA:0,_ZSt8distanceIPcENSt15iterator_traitsIT_E15difference_typeES2_S2_
FN:138,_ZSt8distanceIPKcENSt15iterator_traitsIT_E15difference_typeES3_S3_
FNDA:0,_ZSt8distanceIPKcENSt15iterator_traitsIT_E15difference_typeES3_S3_
DA:98,0
DA:104,0
DA:98,0
DA:104,0
DA:138,0
DA:141,0
DA:142,0
DA:138,0
DA:141,0
DA:142,0
end_of_record
SF:/usr/include/gtest/internal/gtest-internal.h
FN:286,_ZN7testing8internal13FloatingPointIdEC2ERKd
FNDA:840,_ZN7testing8internal13FloatingPointIdEC2ERKd
FN:313,_ZNK7testing8internal13FloatingPointIdE13exponent_bitsEv
FNDA:840,_ZNK7testing8internal13FloatingPointIdE13exponent_bitsEv
FN:316,_ZNK7testing8internal13FloatingPointIdE13fraction_bitsEv
FNDA:0,_ZNK7testing8internal13FloatingPointIdE13fraction_bitsEv
FN:322,_ZNK7testing8internal13FloatingPointIdE6is_nanEv
FNDA:840,_ZNK7testing8internal13FloatingPointIdE6is_nanEv
FN:334,_ZNK7testing8internal13FloatingPointIdE12AlmostEqualsERKS2_
FNDA:420,_ZNK7testing8internal13FloatingPointIdE12AlmostEqualsERKS2_
FN:365,_ZN7testing8internal13FloatingPointIdE24SignAndMagnitudeToBiasedERKy
FNDA:840,_ZN7testing8internal13FloatingPointIdE24SignAndMagnitudeToBiasedERKy
FN:377,_ZN7testing8internal13FloatingPointIdE38DistanceBetweenSignAndMagnitudeNumbersERKyS4_
FNDA:420,_ZN7testing8internal13FloatingPointIdE38DistanceBetweenSignAndMagnitudeNumbersERKyS4_
FN:423,_ZN7testing8internal9GetTypeIdI10TestMatrixEEPKvv
FNDA:54,_ZN7testing8internal9GetTypeIdI10TestMatrixEEPKvv
FN:423,_ZN7testing8internal9GetTypeIdI12TestCtMatrixEEPKvv
FNDA:6,_ZN7testing8internal9GetTypeIdI12TestCtMatrixEEPKvv
FN:442,_ZN7testing8internal15TestFactoryBaseD2Ev
FNDA:90,_ZN7testing8internal15TestFactoryBaseD2Ev
FN:442,_ZN7testing8internal15TestFactoryBaseD0Ev
FNDA:0,_ZN7testing8internal15TestFactoryBaseD0Ev
FN:449,_ZN7testing8internal15TestFactoryBaseC2Ev
FNDA:90,_ZN7testing8internal15TestFactoryBaseC2Ev
FN:460,_ZN7testing8internal15TestFactoryImplI27TestMatrix_move_constr_TestE10CreateTestEv
FNDA:2,_ZN7testing8internal15TestFactoryImplI27TestMatrix_move_constr_TestE10CreateTestEv
FN:460,_ZN7testing8internal15TestFactoryImplI32TestMatrix_size_value_const_TestE10CreateTestEv
FNDA:2,_ZN7testing8internal15TestFactoryImplI32TestMatrix_size_value_const_TestE10CreateTestEv
FN:460,_ZN7testing8internal15TestFactoryImplI34TestMatrix_vector_list_constr_TestE10CreateTestEv
FNDA:2,_ZN7testing8internal15TestFactoryImplI34TestMatrix_vector_list_constr_TestE10CreateTestEv
FN:460,_ZN7testing8internal15TestFactoryImplI34TestMatrix_column_list_constr_TestE10CreateTestEv
FNDA:2,_ZN7testing8internal15TestFactoryImplI34TestMatrix_column_list_constr_TestE10CreateTestEv
FN:460,_ZN7testing8internal15TestFactoryImplI24TestMatrix_list_row_TestE10CreateTestEv
FNDA:2,_ZN7testing8internal15TestFactoryImplI24TestMatrix_list_row_TestE10CreateTestEv
FN:460,_ZN7testing8internal15TestFactoryImplI27TestMatrix_copy_constr_TestE10CreateTestEv
FNDA:2,_ZN7testing8internal15TestFactoryImplI27TestMatrix_copy_constr_TestE10CreateTestEv
FN:460,_ZN7testing8internal15TestFactoryImplI27TestMatrix_determinant_TestE10CreateTestEv
FNDA:2,_ZN7testing8internal15TestFactoryImplI27TestMatrix_determinant_TestE10CreateTestEv
FN:460,_ZN7testing8internal15TestFactoryImplI23TestMatrix_get_row_TestE10CreateTestEv
FNDA:2,_ZN7testing8internal15TestFactoryImplI23TestMatrix_get_row_TestE10CreateTestEv
FN:460,_ZN7testing8internal15TestFactoryImplI23TestMatrix_get_col_TestE10CreateTestEv
FNDA:2,_ZN7testing8internal15TestFactoryImplI23TestMatrix_get_col_TestE10CreateTestEv
FN:460,_ZN7testing8internal15TestFactoryImplI25TestMatrix_main_diag_TestE10CreateTestEv
FNDA:2,_ZN7testing8internal15TestFactoryImplI25TestMatrix_main_diag_TestE10CreateTestEv
FN:460,_ZN7testing8internal15TestFactoryImplI25TestMatrix_transpose_TestE10CreateTestEv
FNDA:2,_ZN7testing8internal15TestFactoryImplI25TestMatrix_transpose_TestE10CreateTestEv
FN:460,_ZN7testing8internal15TestFactoryImplI23TestMatrix_inverse_TestE10CreateTestEv
FNDA:2,_ZN7testing8internal15TestFactoryImplI23TestMatrix_inverse_TestE10CreateTestEv
FN:460,_ZN7testing8internal15TestFactoryImplI27TestMatrix_plus_equals_TestE10CreateTestEv
FNDA:2,_ZN7testing8internal15TestFactoryImplI27TestMatrix_plus_equals_TestE10CreateTestEv
FN:460,_ZN7testing8internal15TestFactoryImplI35TestMatrix_muilt_equals_matrix_TestE10CreateTestEv
FNDA:2,_ZN7testing8internal15TestFactoryImplI35TestMatrix_muilt_equals_matrix_TestE10CreateTestEv
FN:460,_ZN7testing8internal15TestFactoryImplI35TestMatrix_muilt_equals_double_TestE10CreateTestEv
FNDA:2,_ZN7testing8internal15TestFactoryImplI35TestMatrix_muilt_equals_double_TestE10CreateTestEv
FN:460,_ZN7testing8internal15TestFactoryImplI26TestMatrix_append_row_TestE10CreateTestEv
FNDA:2,_ZN7testing8internal15TestFactoryImplI26TestMatrix_append_row_TestE10CreateTestEv
FN:460,_ZN7testing8internal15TestFactoryImplI29TestMatrix_append_column_TestE10CreateTestEv
FNDA:2,_ZN7testing8internal15TestFactoryImplI29TestMatrix_append_column_TestE10CreateTestEv
FN:460,_ZN7testing8internal15TestFactoryImplI30TestCtMatrix_vaule_constr_TestE10CreateTestEv
FNDA:2,_ZN7testing8internal15TestFactoryImplI30TestCtMatrix_vaule_constr_TestE10CreateTestEv
FN:460,_ZN7testing8internal15TestFactoryImplI29TestCtMatrix_copy_constr_TestE10CreateTestEv
FNDA:2,_ZN7testing8internal15TestFactoryImplI29TestCtMatrix_copy_constr_TestE10CreateTestEv
FN:460,_ZN7testing8internal15TestFactoryImplI27TestMatrix_second_diag_TestE10CreateTestEv
FNDA:2,_ZN7testing8internal15TestFactoryImplI27TestMatrix_second_diag_TestE10CreateTestEv
FN:481,_ZN7testing8internal12CodeLocationC2ERKNSt7__cxx1112basic_stringIcSt11char_traitsIcESaIcEEEi
FNDA:90,_ZN7testing8internal12CodeLocationC2ERKNSt7__cxx1112basic_stringIcSt11char_traitsIcESaIcEEEi
FN:494,_ZN7testing8internal19GetNotDefaultOrNullEPFvvES2_
FNDA:360,_ZN7testing8internal19GetNotDefaultOrNullEPFvvES2_
FN:509,_ZN7testing8internal16SuiteApiResolverI12TestCtMatrixE19GetSetUpCaseOrSuiteEPKci
FNDA:6,_ZN7testing8internal16SuiteApiResolverI12TestCtMatrixE19GetSetUpCaseOrSuiteEPKci
FN:509,_ZN7testing8internal16SuiteApiResolverI10TestMatrixE19GetSetUpCaseOrSuiteEPKci
FNDA:54,_ZN7testing8internal16SuiteApiResolverI10TestMatrixE19GetSetUpCaseOrSuiteEPKci
FN:524,_ZN7testing8internal16SuiteApiResolverI12TestCtMatrixE22GetTearDownCaseOrSuiteEPKci
FNDA:6,_ZN7testing8internal16SuiteApiResolverI12TestCtMatrixE22GetTearDownCaseOrSuiteEPKci
FN:524,_ZN7testing8internal16SuiteApiResolverI10TestMatrixE22GetTearDownCaseOrSuiteEPKci
FNDA:54,_ZN7testing8internal16SuiteApiResolverI10TestMatrixE22GetTearDownCaseOrSuiteEPKci
FN:823,_ZN7testing8internal12ConstCharPtrC2EPKc
FNDA:48,_ZN7testing8internal12ConstCharPtrC2EPKc
FN:824,_ZNK7testing8internal12ConstCharPtrcvbEv
FNDA:48,_ZNK7testing8internal12ConstCharPtrcvbEv
DA:286,840
DA:313,840
DA:316,0
DA:322,840
DA:325,840
DA:334,420
DA:337,420
DA:339,420
DA:340,420
DA:365,840
DA:366,840
DA:368,22
DA:371,818
DA:377,420
DA:379,420
DA:380,420
DA:381,420
DA:423,6
DA:428,6
DA:423,54
DA:428,54
DA:442,0
DA:442,90
DA:449,90
DA:460,2
DA:460,2
DA:460,2
DA:460,2
DA:460,2
DA:460,2
DA:460,2
DA:460,2
DA:460,2
DA:460,2
DA:460,2
DA:460,2
DA:460,2
DA:460,2
DA:460,2
DA:460,2
DA:460,2
DA:460,2
DA:460,2
DA:460,2
DA:481,90
DA:482,90
DA:494,360
DA:496,360
DA:509,6
DA:512,6
DA:514,6
DA:516,6
DA:519,0
DA:521,6
DA:509,54
DA:512,54
DA:514,54
DA:516,54
DA:519,0
DA:521,54
DA:524,6
DA:527,6
DA:529,6
DA:531,6
DA:534,0
DA:536,6
DA:524,54
DA:527,54
DA:529,54
DA:531,54
DA:534,0
DA:536,54
DA:823,48
DA:824,48
end_of_record
SF:/usr/include/c++/9/ext/alloc_traits.h
FN:97,_ZN9__gnu_cxx14__alloc_traitsISaIcEcE17_S_select_on_copyERKS1_
FNDA:0,_ZN9__gnu_cxx14__alloc_traitsISaIcEcE17_S_select_on_copyERKS1_
DA:97,0
DA:98,0
end_of_record
SF:/home/egornulllet/Документы/vk/c++/matrix_calc/include/matrix_calc/vector/row.h
FN:16,_ZN3mtx3rowD0Ev
FNDA:0,_ZN3mtx3rowD0Ev
FN:16,_ZN3mtx3rowD2Ev
FNDA:88,_ZN3mtx3rowD2Ev
DA:16,0
DA:16,88
end_of_record
SF:/usr/include/gtest/gtest-message.h
end_of_record
SF:/home/egornulllet/Документы/vk/c++/matrix_calc/include/matrix_calc/vector.h
FN:37,_ZN3mtx6vectorD0Ev
FNDA:0,_ZN3mtx6vectorD0Ev
FN:37,_ZN3mtx6vectorD2Ev
FNDA:80,_ZN3mtx6vectorD2Ev
DA:37,0
DA:37,80
end_of_record
SF:/usr/include/c++/9/bits/unique_ptr.h
FN:75,_ZNKSt14default_deleteINSt7__cxx1112basic_stringIcSt11char_traitsIcESaIcEEEEclEPS5_
FNDA:0,_ZNKSt14default_deleteINSt7__cxx1112basic_stringIcSt11char_traitsIcESaIcEEEEclEPS5_
FN:75,_ZNKSt14default_deleteINSt7__cxx1118basic_stringstreamIcSt11char_traitsIcESaIcEEEEclEPS5_
FNDA:0,_ZNKSt14default_deleteINSt7__cxx1118basic_stringstreamIcSt11char_traitsIcESaIcEEEEclEPS5_
FN:146,_ZNSt15__uniq_ptr_implINSt7__cxx1112basic_stringIcSt11char_traitsIcESaIcEEESt14default_deleteIS5_EEC2Ev
FNDA:18,_ZNSt15__uniq_ptr_implINSt7__cxx1112basic_stringIcSt11char_traitsIcESaIcEEESt14default_deleteIS5_EEC2Ev
FN:153,_ZNSt15__uniq_ptr_implINSt7__cxx1112basic_stringIcSt11char_traitsIcESaIcEEESt14default_deleteIS5_EE6_M_ptrEv
FNDA:538,_ZNSt15__uniq_ptr_implINSt7__cxx1112basic_stringIcSt11char_traitsIcESaIcEEESt14default_deleteIS5_EE6_M_ptrEv
FN:153,_ZNSt15__uniq_ptr_implINSt7__cxx1118basic_stringstreamIcSt11char_traitsIcESaIcEEESt14default_deleteIS5_EE6_M_ptrEv
FNDA:0,_ZNSt15__uniq_ptr_implINSt7__cxx1118basic_stringstreamIcSt11char_traitsIcESaIcEEESt14default_deleteIS5_EE6_M_ptrEv
FN:154,_ZNKSt15__uniq_ptr_implINSt7__cxx1112basic_stringIcSt11char_traitsIcESaIcEEESt14default_deleteIS5_EE6_M_ptrEv
FNDA:0,_ZNKSt15__uniq_ptr_implINSt7__cxx1112basic_stringIcSt11char_traitsIcESaIcEEESt14default_deleteIS5_EE6_M_ptrEv
FN:155,_ZNSt15__uniq_ptr_implINSt7__cxx1112basic_stringIcSt11char_traitsIcESaIcEEESt14default_deleteIS5_EE10_M_deleterEv
FNDA:0,_ZNSt15__uniq_ptr_implINSt7__cxx1112basic_stringIcSt11char_traitsIcESaIcEEESt14default_deleteIS5_EE10_M_deleterEv
FN:155,_ZNSt15__uniq_ptr_implINSt7__cxx1118basic_stringstreamIcSt11char_traitsIcESaIcEEESt14default_deleteIS5_EE10_M_deleterEv
FNDA:0,_ZNSt15__uniq_ptr_implINSt7__cxx1118basic_stringstreamIcSt11char_traitsIcESaIcEEESt14default_deleteIS5_EE10_M_deleterEv
FN:199,_ZNSt10unique_ptrINSt7__cxx1112basic_stringIcSt11char_traitsIcESaIcEEESt14default_deleteIS5_EEC2IS7_vEEv
FNDA:18,_ZNSt10unique_ptrINSt7__cxx1112basic_stringIcSt11char_traitsIcESaIcEEESt14default_deleteIS5_EEC2IS7_vEEv
FN:286,_ZNSt10unique_ptrINSt7__cxx1112basic_stringIcSt11char_traitsIcESaIcEEESt14default_deleteIS5_EED2Ev
FNDA:538,_ZNSt10unique_ptrINSt7__cxx1112basic_stringIcSt11char_traitsIcESaIcEEESt14default_deleteIS5_EED2Ev
FN:286,_ZNSt10unique_ptrINSt7__cxx1118basic_stringstreamIcSt11char_traitsIcESaIcEEESt14default_deleteIS5_EED2Ev
FNDA:0,_ZNSt10unique_ptrINSt7__cxx1118basic_stringstreamIcSt11char_traitsIcESaIcEEESt14default_deleteIS5_EED2Ev
FN:352,_ZNKSt10unique_ptrINSt7__cxx1112basic_stringIcSt11char_traitsIcESaIcEEESt14default_deleteIS5_EEptEv
FNDA:0,_ZNKSt10unique_ptrINSt7__cxx1112basic_stringIcSt11char_traitsIcESaIcEEESt14default_deleteIS5_EEptEv
FN:360,_ZNKSt10unique_ptrINSt7__cxx1112basic_stringIcSt11char_traitsIcESaIcEEESt14default_deleteIS5_EE3getEv
FNDA:0,_ZNKSt10unique_ptrINSt7__cxx1112basic_stringIcSt11char_traitsIcESaIcEEESt14default_deleteIS5_EE3getEv
FN:365,_ZNSt10unique_ptrINSt7__cxx1112basic_stringIcSt11char_traitsIcESaIcEEESt14default_deleteIS5_EE11get_deleterEv
FNDA:0,_ZNSt10unique_ptrINSt7__cxx1112basic_stringIcSt11char_traitsIcESaIcEEESt14default_deleteIS5_EE11get_deleterEv
FN:365,_ZNSt10unique_ptrINSt7__cxx1118basic_stringstreamIcSt11char_traitsIcESaIcEEESt14default_deleteIS5_EE11get_deleterEv
FNDA:0,_ZNSt10unique_ptrINSt7__cxx1118basic_stringstreamIcSt11char_traitsIcESaIcEEESt14default_deleteIS5_EE11get_deleterEv
DA:75,0
DA:81,0
DA:82,0
DA:75,0
DA:81,0
DA:82,0
DA:146,18
DA:153,538
DA:153,0
DA:154,0
DA:155,0
DA:155,0
DA:199,18
DA:200,18
DA:201,18
DA:286,538
DA:290,538
DA:291,538
DA:292,0
DA:293,538
DA:294,538
DA:286,0
DA:290,0
DA:291,0
DA:292,0
DA:293,0
DA:294,0
DA:352,0
DA:355,0
DA:360,0
DA:361,0
DA:365,0
DA:366,0
DA:365,0
DA:366,0
end_of_record
SF:/usr/include/c++/9/bits/char_traits.h
FN:336,_ZNSt11char_traitsIcE6lengthEPKc
FNDA:0,_ZNSt11char_traitsIcE6lengthEPKc
DA:336,0
DA:342,0
end_of_record
SF:/usr/include/c++/9/ext/type_traits.h
FN:152,_ZN9__gnu_cxx17__is_null_pointerIcEEbPT_
FNDA:0,_ZN9__gnu_cxx17__is_null_pointerIcEEbPT_
FN:152,_ZN9__gnu_cxx17__is_null_pointerIKcEEbPT_
FNDA:0,_ZN9__gnu_cxx17__is_null_pointerIKcEEbPT_
DA:152,0
DA:153,0
DA:152,0
DA:153,0
end_of_record
SF:/usr/include/c++/9/bits/stl_iterator_base_types.h
FN:205,_ZSt19__iterator_categoryIPcENSt15iterator_traitsIT_E17iterator_categoryERKS2_
FNDA:0,_ZSt19__iterator_categoryIPcENSt15iterator_traitsIT_E17iterator_categoryERKS2_
FN:205,_ZSt19__iterator_categoryIPKcENSt15iterator_traitsIT_E17iterator_categoryERKS3_
FNDA:0,_ZSt19__iterator_categoryIPKcENSt15iterator_traitsIT_E17iterator_categoryERKS3_
DA:205,0
DA:206,0
DA:205,0
DA:206,0
end_of_record
SF:/usr/include/c++/9/ext/new_allocator.h
FN:80,_ZN9__gnu_cxx13new_allocatorIcEC2Ev
FNDA:0,_ZN9__gnu_cxx13new_allocatorIcEC2Ev
FN:83,_ZN9__gnu_cxx13new_allocatorIcEC2ERKS1_
FNDA:0,_ZN9__gnu_cxx13new_allocatorIcEC2ERKS1_
FN:89,_ZN9__gnu_cxx13new_allocatorIcED2Ev
FNDA:0,_ZN9__gnu_cxx13new_allocatorIcED2Ev
DA:80,0
DA:83,0
DA:89,0
end_of_record
SF:/usr/include/gtest/internal/gtest-port.h
FN:957,_ZN7testing8internal8GTestLog9GetStreamEv
FNDA:0,_ZN7testing8internal8GTestLog9GetStreamEv
DA:957,0
end_of_record
SF:/usr/include/c++/9/tuple
FN:76,_ZNSt10_Head_baseILm1ESt14default_deleteINSt7__cxx1112basic_stringIcSt11char_traitsIcESaIcEEEELb1EEC2Ev
FNDA:18,_ZNSt10_Head_baseILm1ESt14default_deleteINSt7__cxx1112basic_stringIcSt11char_traitsIcESaIcEEEELb1EEC2Ev
FN:113,_ZNSt10_Head_baseILm1ESt14default_deleteINSt7__cxx1118basic_stringstreamIcSt11char_traitsIcESaIcEEEELb1EE7_M_headERS8_
FNDA:0,_ZNSt10_Head_baseILm1ESt14default_deleteINSt7__cxx1118basic_stringstreamIcSt11char_traitsIcESaIcEEEELb1EE7_M_headERS8_
FN:113,_ZNSt10_Head_baseILm1ESt14default_deleteINSt7__cxx1112basic_stringIcSt11char_traitsIcESaIcEEEELb1EE7_M_headERS8_
FNDA:0,_ZNSt10_Head_baseILm1ESt14default_deleteINSt7__cxx1112basic_stringIcSt11char_traitsIcESaIcEEEELb1EE7_M_headERS8_
FN:122,_ZNSt10_Head_baseILm0EPNSt7__cxx1112basic_stringIcSt11char_traitsIcESaIcEEELb0EEC2Ev
FNDA:18,_ZNSt10_Head_baseILm0EPNSt7__cxx1112basic_stringIcSt11char_traitsIcESaIcEEELb0EEC2Ev
FN:160,_ZNSt10_Head_baseILm0EPNSt7__cxx1112basic_stringIcSt11char_traitsIcESaIcEEELb0EE7_M_headERS7_
FNDA:538,_ZNSt10_Head_baseILm0EPNSt7__cxx1112basic_stringIcSt11char_traitsIcESaIcEEELb0EE7_M_headERS7_
FN:160,_ZNSt10_Head_baseILm0EPNSt7__cxx1118basic_stringstreamIcSt11char_traitsIcESaIcEEELb0EE7_M_headERS7_
FNDA:0,_ZNSt10_Head_baseILm0EPNSt7__cxx1118basic_stringstreamIcSt11char_traitsIcESaIcEEELb0EE7_M_headERS7_
FN:163,_ZNSt10_Head_baseILm0EPNSt7__cxx1112basic_stringIcSt11char_traitsIcESaIcEEELb0EE7_M_headERKS7_
FNDA:0,_ZNSt10_Head_baseILm0EPNSt7__cxx1112basic_stringIcSt11char_traitsIcESaIcEEELb0EE7_M_headERKS7_
FN:195,_ZNSt11_Tuple_implILm0EJPNSt7__cxx1118basic_stringstreamIcSt11char_traitsIcESaIcEEESt14default_deleteIS5_EEE7_M_headERS9_
FNDA:0,_ZNSt11_Tuple_implILm0EJPNSt7__cxx1118basic_stringstreamIcSt11char_traitsIcESaIcEEESt14default_deleteIS5_EEE7_M_headERS9_
FN:195,_ZNSt11_Tuple_implILm0EJPNSt7__cxx1112basic_stringIcSt11char_traitsIcESaIcEEESt14default_deleteIS5_EEE7_M_headERS9_
FNDA:538,_ZNSt11_Tuple_implILm0EJPNSt7__cxx1112basic_stringIcSt11char_traitsIcESaIcEEESt14default_deleteIS5_EEE7_M_headERS9_
FN:198,_ZNSt11_Tuple_implILm0EJPNSt7__cxx1112basic_stringIcSt11char_traitsIcESaIcEEESt14default_deleteIS5_EEE7_M_headERKS9_
FNDA:0,_ZNSt11_Tuple_implILm0EJPNSt7__cxx1112basic_stringIcSt11char_traitsIcESaIcEEESt14default_deleteIS5_EEE7_M_headERKS9_
FN:206,_ZNSt11_Tuple_implILm0EJPNSt7__cxx1112basic_stringIcSt11char_traitsIcESaIcEEESt14default_deleteIS5_EEEC2Ev
FNDA:18,_ZNSt11_Tuple_implILm0EJPNSt7__cxx1112basic_stringIcSt11char_traitsIcESaIcEEESt14default_deleteIS5_EEEC2Ev
FN:334,_ZNSt11_Tuple_implILm1EJSt14default_deleteINSt7__cxx1118basic_stringstreamIcSt11char_traitsIcESaIcEEEEEE7_M_headERS8_
FNDA:0,_ZNSt11_Tuple_implILm1EJSt14default_deleteINSt7__cxx1118basic_stringstreamIcSt11char_traitsIcESaIcEEEEEE7_M_headERS8_
FN:334,_ZNSt11_Tuple_implILm1EJSt14default_deleteINSt7__cxx1112basic_stringIcSt11char_traitsIcESaIcEEEEEE7_M_headERS8_
FNDA:0,_ZNSt11_Tuple_implILm1EJSt14default_deleteINSt7__cxx1112basic_stringIcSt11char_traitsIcESaIcEEEEEE7_M_headERS8_
FN:339,_ZNSt11_Tuple_implILm1EJSt14default_deleteINSt7__cxx1112basic_stringIcSt11char_traitsIcESaIcEEEEEEC2Ev
FNDA:18,_ZNSt11_Tuple_implILm1EJSt14default_deleteINSt7__cxx1112basic_stringIcSt11char_traitsIcESaIcEEEEEEC2Ev
FN:918,_ZNSt5tupleIJPNSt7__cxx1112basic_stringIcSt11char_traitsIcESaIcEEESt14default_deleteIS5_EEEC2IS6_S8_Lb1EEEv
FNDA:18,_ZNSt5tupleIJPNSt7__cxx1112basic_stringIcSt11char_traitsIcESaIcEEESt14default_deleteIS5_EEEC2IS6_S8_Lb1EEEv
FN:1309,_ZSt12__get_helperILm1ESt14default_deleteINSt7__cxx1112basic_stringIcSt11char_traitsIcESaIcEEEEJEERT0_RSt11_Tuple_implIXT_EJS8_DpT1_EE
FNDA:0,_ZSt12__get_helperILm1ESt14default_deleteINSt7__cxx1112basic_stringIcSt11char_traitsIcESaIcEEEEJEERT0_RSt11_Tuple_implIXT_EJS8_DpT1_EE
FN:1309,_ZSt12__get_helperILm1ESt14default_deleteINSt7__cxx1118basic_stringstreamIcSt11char_traitsIcESaIcEEEEJEERT0_RSt11_Tuple_implIXT_EJS8_DpT1_EE
FNDA:0,_ZSt12__get_helperILm1ESt14default_deleteINSt7__cxx1118basic_stringstreamIcSt11char_traitsIcESaIcEEEEJEERT0_RSt11_Tuple_implIXT_EJS8_DpT1_EE
FN:1309,_ZSt12__get_helperILm0EPNSt7__cxx1112basic_stringIcSt11char_traitsIcESaIcEEEJSt14default_deleteIS5_EEERT0_RSt11_Tuple_implIXT_EJS9_DpT1_EE
FNDA:538,_ZSt12__get_helperILm0EPNSt7__cxx1112basic_stringIcSt11char_traitsIcESaIcEEEJSt14default_deleteIS5_EEERT0_RSt11_Tuple_implIXT_EJS9_DpT1_EE
FN:1309,_ZSt12__get_helperILm0EPNSt7__cxx1118basic_stringstreamIcSt11char_traitsIcESaIcEEEJSt14default_deleteIS5_EEERT0_RSt11_Tuple_implIXT_EJS9_DpT1_EE
FNDA:0,_ZSt12__get_helperILm0EPNSt7__cxx1118basic_stringstreamIcSt11char_traitsIcESaIcEEEJSt14default_deleteIS5_EEERT0_RSt11_Tuple_implIXT_EJS9_DpT1_EE
FN:1314,_ZSt12__get_helperILm0EPNSt7__cxx1112basic_stringIcSt11char_traitsIcESaIcEEEJSt14default_deleteIS5_EEERKT0_RKSt11_Tuple_implIXT_EJS9_DpT1_EE
FNDA:0,_ZSt12__get_helperILm0EPNSt7__cxx1112basic_stringIcSt11char_traitsIcESaIcEEEJSt14default_deleteIS5_EEERKT0_RKSt11_Tuple_implIXT_EJS9_DpT1_EE
FN:1320,_ZSt3getILm1EJPNSt7__cxx1112basic_stringIcSt11char_traitsIcESaIcEEESt14default_deleteIS5_EEERNSt13tuple_elementIXT_ESt5tupleIJDpT0_EEE4typeERSD_
FNDA:0,_ZSt3getILm1EJPNSt7__cxx1112basic_stringIcSt11char_traitsIcESaIcEEESt14default_deleteIS5_EEERNSt13tuple_elementIXT_ESt5tupleIJDpT0_EEE4typeERSD_
FN:1320,_ZSt3getILm1EJPNSt7__cxx1118basic_stringstreamIcSt11char_traitsIcESaIcEEESt14default_deleteIS5_EEERNSt13tuple_elementIXT_ESt5tupleIJDpT0_EEE4typeERSD_
FNDA:0,_ZSt3getILm1EJPNSt7__cxx1118basic_stringstreamIcSt11char_traitsIcESaIcEEESt14default_deleteIS5_EEERNSt13tuple_elementIXT_ESt5tupleIJDpT0_EEE4typeERSD_
FN:1320,_ZSt3getILm0EJPNSt7__cxx1112basic_stringIcSt11char_traitsIcESaIcEEESt14default_deleteIS5_EEERNSt13tuple_elementIXT_ESt5tupleIJDpT0_EEE4typeERSD_
FNDA:538,_ZSt3getILm0EJPNSt7__cxx1112basic_stringIcSt11char_traitsIcESaIcEEESt14default_deleteIS5_EEERNSt13tuple_elementIXT_ESt5tupleIJDpT0_EEE4typeERSD_
FN:1320,_ZSt3getILm0EJPNSt7__cxx1118basic_stringstreamIcSt11char_traitsIcESaIcEEESt14default_deleteIS5_EEERNSt13tuple_elementIXT_ESt5tupleIJDpT0_EEE4typeERSD_
FNDA:0,_ZSt3getILm0EJPNSt7__cxx1118basic_stringstreamIcSt11char_traitsIcESaIcEEESt14default_deleteIS5_EEERNSt13tuple_elementIXT_ESt5tupleIJDpT0_EEE4typeERSD_
FN:1326,_ZSt3getILm0EJPNSt7__cxx1112basic_stringIcSt11char_traitsIcESaIcEEESt14default_deleteIS5_EEERKNSt13tuple_elementIXT_ESt5tupleIJDpT0_EEE4typeERKSD_
FNDA:0,_ZSt3getILm0EJPNSt7__cxx1112basic_stringIcSt11char_traitsIcESaIcEEESt14default_deleteIS5_EEERKNSt13tuple_elementIXT_ESt5tupleIJDpT0_EEE4typeERKSD_
DA:76,18
DA:77,18
DA:113,0
DA:113,0
DA:122,18
DA:123,18
DA:160,538
DA:160,0
DA:163,0
DA:195,538
DA:195,0
DA:198,0
DA:206,18
DA:207,18
DA:334,0
DA:334,0
DA:339,18
DA:340,18
DA:918,18
DA:919,18
DA:1309,0
DA:1310,0
DA:1309,0
DA:1310,0
DA:1309,538
DA:1310,538
DA:1309,0
DA:1310,0
DA:1314,0
DA:1315,0
DA:1320,0
DA:1321,0
DA:1320,0
DA:1321,0
DA:1320,538
DA:1321,538
DA:1320,0
DA:1321,0
DA:1326,0
DA:1327,0
end_of_record
SF:/home/egornulllet/Документы/vk/c++/matrix_calc/include/matrix_calc/matrix_ct.hpp
FN:31,_ZN3mtx9matrix_ctILm0ELm0EEC2Ed
FNDA:2,_ZN3mtx9matrix_ctILm0ELm0EEC2Ed
FN:31,_ZN3mtx9matrix_ctILm3ELm3EEC2Ed
FNDA:8,_ZN3mtx9matrix_ctILm3ELm3EEC2Ed
FN:35,_ZN3mtx9matrix_ctILm3ELm3EEC2ERKS1_
FNDA:2,_ZN3mtx9matrix_ctILm3ELm3EEC2ERKS1_
FN:40,_ZNK3mtx9matrix_ctILm3ELm3EEixEm
FNDA:60,_ZNK3mtx9matrix_ctILm3ELm3EEixEm
FN:92,_ZN3mtx9matrix_ctILm0ELm0EE4rowsEv
FNDA:2,_ZN3mtx9matrix_ctILm0ELm0EE4rowsEv
FN:92,_ZN3mtx9matrix_ctILm3ELm3EE4rowsEv
FNDA:40,_ZN3mtx9matrix_ctILm3ELm3EE4rowsEv
FN:97,_ZN3mtx9matrix_ctILm0ELm0EE4colsEv
FNDA:2,_ZN3mtx9matrix_ctILm0ELm0EE4colsEv
FN:97,_ZN3mtx9matrix_ctILm3ELm3EE4colsEv
FNDA:48,_ZN3mtx9matrix_ctILm3ELm3EE4colsEv
DA:31,2
DA:32,2
DA:31,8
DA:32,8
DA:35,2
DA:36,2
DA:40,60
DA:41,60
DA:92,2
DA:93,2
DA:92,40
DA:93,40
DA:97,2
DA:98,2
DA:97,48
DA:98,48
end_of_record
